	.cpu cortex-m4
	.arch armv7e-m
	.fpu softvfp
	.eabi_attribute 20, 1
	.eabi_attribute 21, 1
	.eabi_attribute 23, 3
	.eabi_attribute 24, 1
	.eabi_attribute 25, 1
	.eabi_attribute 26, 1
	.eabi_attribute 30, 6
	.eabi_attribute 34, 1
	.eabi_attribute 18, 4
	.file	"servo_motor_driver.c"
	.text
.Ltext0:
	.cfi_sections	.debug_frame
	.file 1 "bsp/Src/servo_motor_driver.c"
	.align	1
	.global	Servo1_Entry_Gate_Init
	.syntax unified
	.thumb
	.thumb_func
	.type	Servo1_Entry_Gate_Init, %function
Servo1_Entry_Gate_Init:
.LFB3:
	.loc 1 26 1
	.cfi_startproc
	@ args = 0, pretend = 0, frame = 16
	@ frame_needed = 1, uses_anonymous_args = 0
	push	{r7, lr}
	.cfi_def_cfa_offset 8
	.cfi_offset 7, -8
	.cfi_offset 14, -4
	sub	sp, sp, #16
	.cfi_def_cfa_offset 24
	add	r7, sp, #0
	.cfi_def_cfa_register 7
	.loc 1 28 29
	movs	r3, #8
	strh	r3, [r7, #2]	@ movhi
	.loc 1 29 24
	movs	r3, #1
	strb	r3, [r7]
	.loc 1 30 29
	movs	r3, #0
	str	r3, [r7, #8]
	.loc 1 31 34
	movs	r3, #0
	str	r3, [r7, #4]
	.loc 1 32 28
	movs	r3, #2
	strb	r3, [r7, #1]
	.loc 1 34 5
	mov	r3, r7
	mov	r1, r3
	ldr	r0, .L2
	bl	MCAL_GPIO_Init
	.loc 1 35 1
	nop
	adds	r7, r7, #16
	.cfi_def_cfa_offset 8
	mov	sp, r7
	.cfi_def_cfa_register 13
	@ sp needed
	pop	{r7, pc}
.L3:
	.align	2
.L2:
	.word	1073873920
	.cfi_endproc
.LFE3:
	.size	Servo1_Entry_Gate_Init, .-Servo1_Entry_Gate_Init
	.align	1
	.global	Servo1_Entry_Gate
	.syntax unified
	.thumb
	.thumb_func
	.type	Servo1_Entry_Gate, %function
Servo1_Entry_Gate:
.LFB4:
	.loc 1 48 1
	.cfi_startproc
	@ args = 0, pretend = 0, frame = 8
	@ frame_needed = 1, uses_anonymous_args = 0
	push	{r7, lr}
	.cfi_def_cfa_offset 8
	.cfi_offset 7, -8
	.cfi_offset 14, -4
	sub	sp, sp, #8
	.cfi_def_cfa_offset 16
	add	r7, sp, #0
	.cfi_def_cfa_register 7
	mov	r3, r0
	strb	r3, [r7, #7]
	.loc 1 49 7
	ldrb	r3, [r7, #7]	@ zero_extendqisi2
	cmp	r3, #0
	bne	.L5
	.loc 1 52 9
	movs	r2, #1
	movs	r1, #8
	ldr	r0, .L8
	bl	MCAL_GPIO_WritePin
	.loc 1 53 9
	mov	r0, #500
	bl	dus
	.loc 1 54 9
	movs	r2, #0
	movs	r1, #8
	ldr	r0, .L8
	bl	MCAL_GPIO_WritePin
	.loc 1 63 1
	b	.L7
.L5:
	.loc 1 56 12
	ldrb	r3, [r7, #7]	@ zero_extendqisi2
	cmp	r3, #1
	bne	.L7
	.loc 1 59 9
	movs	r2, #1
	movs	r1, #8
	ldr	r0, .L8
	bl	MCAL_GPIO_WritePin
	.loc 1 60 9
	movw	r0, #2994
	bl	dus
	.loc 1 61 9
	movs	r2, #0
	movs	r1, #8
	ldr	r0, .L8
	bl	MCAL_GPIO_WritePin
.L7:
	.loc 1 63 1
	nop
	adds	r7, r7, #8
	.cfi_def_cfa_offset 8
	mov	sp, r7
	.cfi_def_cfa_register 13
	@ sp needed
	pop	{r7, pc}
.L9:
	.align	2
.L8:
	.word	1073873920
	.cfi_endproc
.LFE4:
	.size	Servo1_Entry_Gate, .-Servo1_Entry_Gate
	.align	1
	.global	Servo2_Exit_Gate_Init
	.syntax unified
	.thumb
	.thumb_func
	.type	Servo2_Exit_Gate_Init, %function
Servo2_Exit_Gate_Init:
.LFB5:
	.loc 1 75 1
	.cfi_startproc
	@ args = 0, pretend = 0, frame = 16
	@ frame_needed = 1, uses_anonymous_args = 0
	push	{r7, lr}
	.cfi_def_cfa_offset 8
	.cfi_offset 7, -8
	.cfi_offset 14, -4
	sub	sp, sp, #16
	.cfi_def_cfa_offset 24
	add	r7, sp, #0
	.cfi_def_cfa_register 7
	.loc 1 77 29
	movs	r3, #9
	strh	r3, [r7, #2]	@ movhi
	.loc 1 78 24
	movs	r3, #1
	strb	r3, [r7]
	.loc 1 79 29
	movs	r3, #0
	str	r3, [r7, #8]
	.loc 1 80 34
	movs	r3, #0
	str	r3, [r7, #4]
	.loc 1 81 28
	movs	r3, #2
	strb	r3, [r7, #1]
	.loc 1 83 5
	mov	r3, r7
	mov	r1, r3
	ldr	r0, .L11
	bl	MCAL_GPIO_Init
	.loc 1 84 1
	nop
	adds	r7, r7, #16
	.cfi_def_cfa_offset 8
	mov	sp, r7
	.cfi_def_cfa_register 13
	@ sp needed
	pop	{r7, pc}
.L12:
	.align	2
.L11:
	.word	1073873920
	.cfi_endproc
.LFE5:
	.size	Servo2_Exit_Gate_Init, .-Servo2_Exit_Gate_Init
	.align	1
	.global	Servo2_Exit_Gate
	.syntax unified
	.thumb
	.thumb_func
	.type	Servo2_Exit_Gate, %function
Servo2_Exit_Gate:
.LFB6:
	.loc 1 97 1
	.cfi_startproc
	@ args = 0, pretend = 0, frame = 8
	@ frame_needed = 1, uses_anonymous_args = 0
	push	{r7, lr}
	.cfi_def_cfa_offset 8
	.cfi_offset 7, -8
	.cfi_offset 14, -4
	sub	sp, sp, #8
	.cfi_def_cfa_offset 16
	add	r7, sp, #0
	.cfi_def_cfa_register 7
	mov	r3, r0
	strb	r3, [r7, #7]
	.loc 1 98 7
	ldrb	r3, [r7, #7]	@ zero_extendqisi2
	cmp	r3, #0
	bne	.L14
	.loc 1 101 9
	movs	r2, #1
	movs	r1, #9
	ldr	r0, .L17
	bl	MCAL_GPIO_WritePin
	.loc 1 102 9
	mov	r0, #500
	bl	dus
	.loc 1 103 9
	movs	r2, #0
	movs	r1, #9
	ldr	r0, .L17
	bl	MCAL_GPIO_WritePin
	.loc 1 112 1
	b	.L16
.L14:
	.loc 1 105 12
	ldrb	r3, [r7, #7]	@ zero_extendqisi2
	cmp	r3, #1
	bne	.L16
	.loc 1 108 9
	movs	r2, #1
	movs	r1, #9
	ldr	r0, .L17
	bl	MCAL_GPIO_WritePin
	.loc 1 109 9
	movw	r0, #2994
	bl	dus
	.loc 1 110 9
	movs	r2, #0
	movs	r1, #9
	ldr	r0, .L17
	bl	MCAL_GPIO_WritePin
.L16:
	.loc 1 112 1
	nop
	adds	r7, r7, #8
	.cfi_def_cfa_offset 8
	mov	sp, r7
	.cfi_def_cfa_register 13
	@ sp needed
	pop	{r7, pc}
.L18:
	.align	2
.L17:
	.word	1073873920
	.cfi_endproc
.LFE6:
	.size	Servo2_Exit_Gate, .-Servo2_Exit_Gate
.Letext0:
	.file 2 "drivers/Inc/Platform_Types.h"
	.file 3 "drivers/Inc/stm32f401xx.h"
	.file 4 "drivers/Inc/stm32f401xx_gpio_driver.h"
	.file 5 "drivers/Inc/stm32f401xx_timer_driver.h"