	.cpu cortex-m4
	.arch armv7e-m
	.fpu softvfp
	.eabi_attribute 20, 1
	.eabi_attribute 21, 1
	.eabi_attribute 23, 3
	.eabi_attribute 24, 1
	.eabi_attribute 25, 1
	.eabi_attribute 26, 1
	.eabi_attribute 30, 6
	.eabi_attribute 34, 1
	.eabi_attribute 18, 4
	.file	"stm32f401xx_usart_driver.c"
	.text
.Ltext0:
	.cfi_sections	.debug_frame
	.file 1 "drivers/Src/stm32f401xx_usart_driver.c"
	.bss
	.align	2
Global_USART_cfg:
	.space	84
	.size	Global_USART_cfg, 84
	.text
	.align	1
	.global	MCAL_USART_Init
	.syntax unified
	.thumb
	.thumb_func
	.type	MCAL_USART_Init, %function
MCAL_USART_Init:
.LFB3:
	.loc 1 50 69
	.cfi_startproc
	@ args = 0, pretend = 0, frame = 16
	@ frame_needed = 1, uses_anonymous_args = 0
	push	{r4, r5, r7, lr}
	.cfi_def_cfa_offset 16
	.cfi_offset 4, -16
	.cfi_offset 5, -12
	.cfi_offset 7, -8
	.cfi_offset 14, -4
	sub	sp, sp, #16
	.cfi_def_cfa_offset 32
	add	r7, sp, #0
	.cfi_def_cfa_register 7
	str	r0, [r7, #4]
	str	r1, [r7]
	.loc 1 54 8
	ldr	r3, [r7, #4]
	ldr	r2, .L10
	cmp	r3, r2
	bne	.L2
	.loc 1 55 9
	movs	r0, #8
	bl	MCAL_RCC_Enable_Peripheral
	.loc 1 56 29
	ldr	r2, .L10+4
	ldr	r3, [r7]
	mov	r4, r2
	mov	r5, r3
	ldmia	r5!, {r0, r1, r2, r3}
	stmia	r4!, {r0, r1, r2, r3}
	ldm	r5, {r0, r1, r2}
	stm	r4, {r0, r1, r2}
	b	.L3
.L2:
	.loc 1 57 15
	ldr	r3, [r7, #4]
	ldr	r2, .L10+8
	cmp	r3, r2
	bne	.L4
	.loc 1 58 9
	movs	r0, #9
	bl	MCAL_RCC_Enable_Peripheral
	.loc 1 59 29
	ldr	r3, .L10+4
	ldr	r2, [r7]
	add	r4, r3, #28
	mov	r5, r2
	ldmia	r5!, {r0, r1, r2, r3}
	stmia	r4!, {r0, r1, r2, r3}
	ldm	r5, {r0, r1, r2}
	stm	r4, {r0, r1, r2}
	b	.L3
.L4:
	.loc 1 60 15
	ldr	r3, [r7, #4]
	ldr	r2, .L10+12
	cmp	r3, r2
	bne	.L3
	.loc 1 61 9
	movs	r0, #10
	bl	MCAL_RCC_Enable_Peripheral
	.loc 1 62 29
	ldr	r3, .L10+4
	ldr	r2, [r7]
	add	r4, r3, #56
	mov	r5, r2
	ldmia	r5!, {r0, r1, r2, r3}
	stmia	r4!, {r0, r1, r2, r3}
	ldm	r5, {r0, r1, r2}
	stm	r4, {r0, r1, r2}
.L3:
	.loc 1 68 11
	ldr	r3, [r7, #4]
	ldr	r3, [r3, #12]
	.loc 1 68 17
	orr	r2, r3, #8192
	ldr	r3, [r7, #4]
	str	r2, [r3, #12]
	.loc 1 71 11
	ldr	r3, [r7, #4]
	ldr	r3, [r3, #12]
	.loc 1 71 29
	ldr	r2, [r7]
	ldrb	r2, [r2]	@ zero_extendqisi2
	.loc 1 71 17
	orrs	r2, r2, r3
	ldr	r3, [r7, #4]
	str	r2, [r3, #12]
	.loc 1 74 11
	ldr	r3, [r7, #4]
	ldr	r3, [r3, #12]
	.loc 1 74 29
	ldr	r2, [r7]
	ldrb	r2, [r2, #8]	@ zero_extendqisi2
	.loc 1 74 17
	orrs	r2, r2, r3
	ldr	r3, [r7, #4]
	str	r2, [r3, #12]
	.loc 1 77 11
	ldr	r3, [r7, #4]
	ldr	r2, [r3, #12]
	.loc 1 77 29
	ldr	r3, [r7]
	ldr	r3, [r3, #12]
	.loc 1 77 17
	orrs	r2, r2, r3
	ldr	r3, [r7, #4]
	str	r2, [r3, #12]
	.loc 1 80 11
	ldr	r3, [r7, #4]
	ldr	r2, [r3, #16]
	.loc 1 80 29
	ldr	r3, [r7]
	ldr	r3, [r3, #16]
	.loc 1 80 17
	orrs	r2, r2, r3
	ldr	r3, [r7, #4]
	str	r2, [r3, #16]
	.loc 1 83 11
	ldr	r3, [r7, #4]
	ldr	r3, [r3, #20]
	.loc 1 83 29
	ldr	r2, [r7]
	ldrb	r2, [r2, #20]	@ zero_extendqisi2
	.loc 1 83 17
	orrs	r2, r2, r3
	ldr	r3, [r7, #4]
	str	r2, [r3, #20]
	.loc 1 86 8
	ldr	r3, [r7, #4]
	ldr	r2, .L10
	cmp	r3, r2
	bne	.L5
	.loc 1 87 16
	bl	MCAL_RCC_GetPCLK2Freq
	str	r0, [r7, #12]
	b	.L6
.L5:
	.loc 1 89 16
	bl	MCAL_RCC_GetPCLK1Freq
	str	r0, [r7, #12]
.L6:
	.loc 1 91 11
	ldr	r3, [r7]
	ldr	r3, [r3, #4]
	lsls	r3, r3, #4
	ldr	r2, [r7, #12]
	udiv	r3, r2, r3
	lsls	r1, r3, #4
	ldr	r2, [r7, #12]
	mov	r3, r2
	lsls	r3, r3, #2
	add	r3, r3, r2
	lsls	r2, r3, #2
	add	r2, r2, r3
	ldr	r3, [r7]
	ldr	r3, [r3, #4]
	lsls	r3, r3, #2
	udiv	r2, r2, r3
	ldr	r3, [r7]
	ldr	r3, [r3, #4]
	lsls	r3, r3, #4
	ldr	r0, [r7, #12]
	udiv	r3, r0, r3
	movs	r0, #100
	mul	r3, r0, r3
	subs	r3, r2, r3
	lsls	r3, r3, #4
	ldr	r2, .L10+16
	umull	r2, r3, r2, r3
	lsrs	r3, r3, #5
	and	r3, r3, #15
	.loc 1 91 9
	orrs	r3, r3, r1
	str	r3, [r7, #8]
	.loc 1 92 17
	ldr	r3, [r7, #4]
	ldr	r2, [r7, #8]
	str	r2, [r3, #8]
	.loc 1 95 42
	ldr	r3, [r7]
	ldrb	r3, [r3, #21]	@ zero_extendqisi2
	.loc 1 95 8
	cmp	r3, #0
	beq	.L7
	.loc 1 96 15
	ldr	r3, [r7, #4]
	ldr	r3, [r3, #12]
	.loc 1 96 33
	ldr	r2, [r7]
	ldrb	r2, [r2, #21]	@ zero_extendqisi2
	.loc 1 96 21
	orrs	r2, r2, r3
	ldr	r3, [r7, #4]
	str	r2, [r3, #12]
	.loc 1 99 12
	ldr	r3, [r7, #4]
	ldr	r2, .L10
	cmp	r3, r2
	bne	.L8
	.loc 1 100 13
	movs	r0, #37
	bl	MCAL_NVIC_EnableIRQ
	b	.L7
.L8:
	.loc 1 101 19
	ldr	r3, [r7, #4]
	ldr	r2, .L10+8
	cmp	r3, r2
	bne	.L9
	.loc 1 102 13
	movs	r0, #38
	bl	MCAL_NVIC_EnableIRQ
	b	.L7
.L9:
	.loc 1 103 19
	ldr	r3, [r7, #4]
	ldr	r2, .L10+12
	cmp	r3, r2
	bne	.L7
	.loc 1 104 13
	movs	r0, #71
	bl	MCAL_NVIC_EnableIRQ
.L7:
	.loc 1 112 5
	ldr	r0, [r7, #4]
	bl	MCAL_USART_GPIO_Set_Pins
	.loc 1 113 1
	nop
	adds	r7, r7, #16
	.cfi_def_cfa_offset 16
	mov	sp, r7
	.cfi_def_cfa_register 13
	@ sp needed
	pop	{r4, r5, r7, pc}
.L11:
	.align	2
.L10:
	.word	1073811456
	.word	Global_USART_cfg
	.word	1073759232
	.word	1073812480
	.word	1374389535
	.cfi_endproc
.LFE3:
	.size	MCAL_USART_Init, .-MCAL_USART_Init
	.align	1
	.global	MCAL_USART_DeInit
	.syntax unified
	.thumb
	.thumb_func
	.type	MCAL_USART_DeInit, %function
MCAL_USART_DeInit:
.LFB4:
	.loc 1 123 47
	.cfi_startproc
	@ args = 0, pretend = 0, frame = 8
	@ frame_needed = 1, uses_anonymous_args = 0
	push	{r7, lr}
	.cfi_def_cfa_offset 8
	.cfi_offset 7, -8
	.cfi_offset 14, -4
	sub	sp, sp, #8
	.cfi_def_cfa_offset 16
	add	r7, sp, #0
	.cfi_def_cfa_register 7
	str	r0, [r7, #4]
	.loc 1 124 8
	ldr	r3, [r7, #4]
	ldr	r2, .L17
	cmp	r3, r2
	bne	.L13
	.loc 1 125 9
	movs	r0, #8
	bl	MCAL_RCC_Reset_Peripheral
	.loc 1 126 9
	movs	r0, #37
	bl	MCAL_NVIC_DisableIRQ
	.loc 1 136 1
	b	.L16
.L13:
	.loc 1 127 15
	ldr	r3, [r7, #4]
	ldr	r2, .L17+4
	cmp	r3, r2
	bne	.L15
	.loc 1 128 9
	movs	r0, #9
	bl	MCAL_RCC_Reset_Peripheral
	.loc 1 129 9
	movs	r0, #38
	bl	MCAL_NVIC_DisableIRQ
	.loc 1 136 1
	b	.L16
.L15:
	.loc 1 130 15
	ldr	r3, [r7, #4]
	ldr	r2, .L17+8
	cmp	r3, r2
	bne	.L16
	.loc 1 131 9
	movs	r0, #10
	bl	MCAL_RCC_Reset_Peripheral
	.loc 1 132 9
	movs	r0, #71
	bl	MCAL_NVIC_DisableIRQ
.L16:
	.loc 1 136 1
	nop
	adds	r7, r7, #8
	.cfi_def_cfa_offset 8
	mov	sp, r7
	.cfi_def_cfa_register 13
	@ sp needed
	pop	{r7, pc}
.L18:
	.align	2
.L17:
	.word	1073811456
	.word	1073759232
	.word	1073812480
	.cfi_endproc
.LFE4:
	.size	MCAL_USART_DeInit, .-MCAL_USART_DeInit
	.align	1
	.global	MCAL_USART_GPIO_Set_Pins
	.syntax unified
	.thumb
	.thumb_func
	.type	MCAL_USART_GPIO_Set_Pins, %function
MCAL_USART_GPIO_Set_Pins:
.LFB5:
	.loc 1 148 54
	.cfi_startproc
	@ args = 0, pretend = 0, frame = 24
	@ frame_needed = 1, uses_anonymous_args = 0
	push	{r7, lr}
	.cfi_def_cfa_offset 8
	.cfi_offset 7, -8
	.cfi_offset 14, -4
	sub	sp, sp, #24
	.cfi_def_cfa_offset 32
	add	r7, sp, #0
	.cfi_def_cfa_register 7
	str	r0, [r7, #4]
	.loc 1 151 8
	ldr	r3, [r7, #4]
	ldr	r2, .L24
	cmp	r3, r2
	bne	.L20
	.loc 1 153 9
	movs	r0, #0
	bl	MCAL_RCC_Enable_Peripheral
	.loc 1 156 31
	movs	r3, #9
	strh	r3, [r7, #10]	@ movhi
	.loc 1 157 26
	movs	r3, #2
	strb	r3, [r7, #8]
	.loc 1 158 31
	movs	r3, #0
	str	r3, [r7, #16]
	.loc 1 159 36
	movs	r3, #0
	str	r3, [r7, #12]
	.loc 1 160 30
	movs	r3, #2
	strb	r3, [r7, #9]
	.loc 1 161 35
	movs	r3, #7
	str	r3, [r7, #20]
	.loc 1 162 9
	add	r3, r7, #8
	mov	r1, r3
	ldr	r0, .L24+4
	bl	MCAL_GPIO_Init
	.loc 1 165 31
	movs	r3, #10
	strh	r3, [r7, #10]	@ movhi
	.loc 1 166 26
	movs	r3, #2
	strb	r3, [r7, #8]
	.loc 1 167 36
	movs	r3, #1
	str	r3, [r7, #12]
	.loc 1 168 30
	movs	r3, #2
	strb	r3, [r7, #9]
	.loc 1 169 35
	movs	r3, #7
	str	r3, [r7, #20]
	.loc 1 170 9
	add	r3, r7, #8
	mov	r1, r3
	ldr	r0, .L24+4
	bl	MCAL_GPIO_Init
	.loc 1 256 1
	b	.L23
.L20:
	.loc 1 192 15
	ldr	r3, [r7, #4]
	ldr	r2, .L24+8
	cmp	r3, r2
	bne	.L22
	.loc 1 194 9
	movs	r0, #0
	bl	MCAL_RCC_Enable_Peripheral
	.loc 1 197 31
	movs	r3, #2
	strh	r3, [r7, #10]	@ movhi
	.loc 1 198 26
	movs	r3, #2
	strb	r3, [r7, #8]
	.loc 1 199 31
	movs	r3, #0
	str	r3, [r7, #16]
	.loc 1 200 36
	movs	r3, #0
	str	r3, [r7, #12]
	.loc 1 201 30
	movs	r3, #2
	strb	r3, [r7, #9]
	.loc 1 202 35
	movs	r3, #7
	str	r3, [r7, #20]
	.loc 1 203 9
	add	r3, r7, #8
	mov	r1, r3
	ldr	r0, .L24+4
	bl	MCAL_GPIO_Init
	.loc 1 206 31
	movs	r3, #3
	strh	r3, [r7, #10]	@ movhi
	.loc 1 207 26
	movs	r3, #2
	strb	r3, [r7, #8]
	.loc 1 208 36
	movs	r3, #1
	str	r3, [r7, #12]
	.loc 1 209 30
	movs	r3, #2
	strb	r3, [r7, #9]
	.loc 1 210 35
	movs	r3, #7
	str	r3, [r7, #20]
	.loc 1 211 9
	add	r3, r7, #8
	mov	r1, r3
	ldr	r0, .L24+4
	bl	MCAL_GPIO_Init
	.loc 1 256 1
	b	.L23
.L22:
	.loc 1 233 15
	ldr	r3, [r7, #4]
	ldr	r2, .L24+12
	cmp	r3, r2
	bne	.L23
	.loc 1 235 9
	movs	r0, #2
	bl	MCAL_RCC_Enable_Peripheral
	.loc 1 238 31
	movs	r3, #6
	strh	r3, [r7, #10]	@ movhi
	.loc 1 239 26
	movs	r3, #2
	strb	r3, [r7, #8]
	.loc 1 240 31
	movs	r3, #0
	str	r3, [r7, #16]
	.loc 1 241 36
	movs	r3, #0
	str	r3, [r7, #12]
	.loc 1 242 30
	movs	r3, #2
	strb	r3, [r7, #9]
	.loc 1 243 35
	movs	r3, #8
	str	r3, [r7, #20]
	.loc 1 244 9
	add	r3, r7, #8
	mov	r1, r3
	ldr	r0, .L24+16
	bl	MCAL_GPIO_Init
	.loc 1 247 31
	movs	r3, #7
	strh	r3, [r7, #10]	@ movhi
	.loc 1 248 26
	movs	r3, #2
	strb	r3, [r7, #8]
	.loc 1 249 36
	movs	r3, #1
	str	r3, [r7, #12]
	.loc 1 250 30
	movs	r3, #2
	strb	r3, [r7, #9]
	.loc 1 251 35
	movs	r3, #8
	str	r3, [r7, #20]
	.loc 1 252 9
	add	r3, r7, #8
	mov	r1, r3
	ldr	r0, .L24+16
	bl	MCAL_GPIO_Init
.L23:
	.loc 1 256 1
	nop
	adds	r7, r7, #24
	.cfi_def_cfa_offset 8
	mov	sp, r7
	.cfi_def_cfa_register 13
	@ sp needed
	pop	{r7, pc}
.L25:
	.align	2
.L24:
	.word	1073811456
	.word	1073872896
	.word	1073759232
	.word	1073812480
	.word	1073874944
	.cfi_endproc
.LFE5:
	.size	MCAL_USART_GPIO_Set_Pins, .-MCAL_USART_GPIO_Set_Pins
	.align	1
	.global	MCAL_USART_SendData
	.syntax unified
	.thumb
	.thumb_func
	.type	MCAL_USART_SendData, %function
MCAL_USART_SendData:
.LFB6:
	.loc 1 270 97
	.cfi_startproc
	@ args = 0, pretend = 0, frame = 16
	@ frame_needed = 1, uses_anonymous_args = 0
	@ link register save eliminated.
	push	{r7}
	.cfi_def_cfa_offset 4
	.cfi_offset 7, -4
	sub	sp, sp, #20
	.cfi_def_cfa_offset 24
	add	r7, sp, #0
	.cfi_def_cfa_register 7
	str	r0, [r7, #12]
	str	r1, [r7, #8]
	mov	r3, r2
	strb	r3, [r7, #7]
	.loc 1 271 8
	ldrb	r3, [r7, #7]	@ zero_extendqisi2
	cmp	r3, #0
	bne	.L27
	.loc 1 273 15
	nop
.L28:
	.loc 1 273 24 discriminator 1
	ldr	r3, [r7, #12]
	ldr	r3, [r3]
	.loc 1 273 29 discriminator 1
	and	r3, r3, #128
	.loc 1 273 16 discriminator 1
	cmp	r3, #0
	beq	.L28
.L27:
	.loc 1 279 8
	ldr	r3, [r7, #12]
	ldr	r2, .L33
	cmp	r3, r2
	bne	.L29
	.loc 1 280 23
	ldr	r3, [r7, #8]
	ldrh	r3, [r3]
	.loc 1 280 34
	uxtb	r2, r3
	.loc 1 280 20
	ldr	r3, [r7, #12]
	str	r2, [r3, #4]
	.loc 1 288 1
	b	.L32
.L29:
	.loc 1 281 15
	ldr	r3, [r7, #12]
	ldr	r2, .L33+4
	cmp	r3, r2
	bne	.L31
	.loc 1 282 23
	ldr	r3, [r7, #8]
	ldrh	r3, [r3]
	.loc 1 282 34
	uxtb	r2, r3
	.loc 1 282 20
	ldr	r3, [r7, #12]
	str	r2, [r3, #4]
	.loc 1 288 1
	b	.L32
.L31:
	.loc 1 283 15
	ldr	r3, [r7, #12]
	ldr	r2, .L33+8
	cmp	r3, r2
	bne	.L32
	.loc 1 284 23
	ldr	r3, [r7, #8]
	ldrh	r3, [r3]
	.loc 1 284 34
	uxtb	r2, r3
	.loc 1 284 20
	ldr	r3, [r7, #12]
	str	r2, [r3, #4]
.L32:
	.loc 1 288 1
	nop
	adds	r7, r7, #20
	.cfi_def_cfa_offset 4
	mov	sp, r7
	.cfi_def_cfa_register 13
	@ sp needed
	pop	{r7}
	.cfi_restore 7
	.cfi_def_cfa_offset 0
	bx	lr
.L34:
	.align	2
.L33:
	.word	1073811456
	.word	1073759232
	.word	1073812480
	.cfi_endproc
.LFE6:
	.size	MCAL_USART_SendData, .-MCAL_USART_SendData
	.align	1
	.global	MCAL_USART_SendString
	.syntax unified
	.thumb
	.thumb_func
	.type	MCAL_USART_SendString, %function
MCAL_USART_SendString:
.LFB7:
	.loc 1 299 78
	.cfi_startproc
	@ args = 0, pretend = 0, frame = 24
	@ frame_needed = 1, uses_anonymous_args = 0
	push	{r7, lr}
	.cfi_def_cfa_offset 8
	.cfi_offset 7, -8
	.cfi_offset 14, -4
	sub	sp, sp, #24
	.cfi_def_cfa_offset 32
	add	r7, sp, #0
	.cfi_def_cfa_register 7
	str	r0, [r7, #12]
	str	r1, [r7, #8]
	mov	r3, r2
	strb	r3, [r7, #7]
	.loc 1 300 8
	ldrb	r3, [r7, #7]	@ zero_extendqisi2
	cmp	r3, #0
	beq	.L40
.LBB2:
	.loc 1 302 20
	movs	r3, #0
	strb	r3, [r7, #23]
	.loc 1 302 9
	b	.L37
.L38:
	.loc 1 303 13 discriminator 3
	ldrb	r3, [r7, #23]	@ zero_extendqisi2
	.loc 1 303 51 discriminator 3
	ldr	r2, [r7, #8]
	add	r3, r3, r2
	.loc 1 303 13 discriminator 3
	movs	r2, #0
	mov	r1, r3
	ldr	r0, [r7, #12]
	bl	MCAL_USART_SendData
	.loc 1 302 41 discriminator 3
	ldrb	r3, [r7, #23]	@ zero_extendqisi2
	adds	r3, r3, #1
	strb	r3, [r7, #23]
.L37:
	.loc 1 302 29 discriminator 1
	ldrb	r2, [r7, #23]	@ zero_extendqisi2
	ldrb	r3, [r7, #7]	@ zero_extendqisi2
	cmp	r2, r3
	bcc	.L38
.LBE2:
	.loc 1 313 1
	b	.L42
.L41:
	.loc 1 308 13
	movs	r2, #0
	ldr	r1, [r7, #8]
	ldr	r0, [r7, #12]
	bl	MCAL_USART_SendData
	.loc 1 309 13
	ldr	r0, [r7, #12]
	bl	MCAL_USART_Wait_TC
	.loc 1 310 16
	ldr	r3, [r7, #8]
	adds	r3, r3, #1
	str	r3, [r7, #8]
.L40:
	.loc 1 307 16
	ldr	r3, [r7, #8]
	ldrb	r3, [r3]	@ zero_extendqisi2
	cmp	r3, #0
	bne	.L41
.L42:
	.loc 1 313 1
	nop
	adds	r7, r7, #24
	.cfi_def_cfa_offset 8
	mov	sp, r7
	.cfi_def_cfa_register 13
	@ sp needed
	pop	{r7, pc}
	.cfi_endproc
.LFE7:
	.size	MCAL_USART_SendString, .-MCAL_USART_SendString
	.align	1
	.global	MCAL_USART_ReceiveData
	.syntax unified
	.thumb
	.thumb_func
	.type	MCAL_USART_ReceiveData, %function
MCAL_USART_ReceiveData:
.LFB8:
	.loc 1 325 100
	.cfi_startproc
	@ args = 0, pretend = 0, frame = 16
	@ frame_needed = 1, uses_anonymous_args = 0
	@ link register save eliminated.
	push	{r7}
	.cfi_def_cfa_offset 4
	.cfi_offset 7, -4
	sub	sp, sp, #20
	.cfi_def_cfa_offset 24
	add	r7, sp, #0
	.cfi_def_cfa_register 7
	str	r0, [r7, #12]
	str	r1, [r7, #8]
	mov	r3, r2
	strb	r3, [r7, #7]
	.loc 1 326 8
	ldrb	r3, [r7, #7]	@ zero_extendqisi2
	cmp	r3, #0
	bne	.L44
	.loc 1 328 15
	nop
.L45:
	.loc 1 328 24 discriminator 1
	ldr	r3, [r7, #12]
	ldr	r3, [r3]
	.loc 1 328 29 discriminator 1
	and	r3, r3, #32
	.loc 1 328 16 discriminator 1
	cmp	r3, #0
	beq	.L45
.L44:
	.loc 1 334 8
	ldr	r3, [r7, #12]
	ldr	r2, .L56
	cmp	r3, r2
	bne	.L46
	.loc 1 337 42
	ldr	r3, .L56+4
	ldr	r3, [r3, #12]
	.loc 1 335 20
	cmp	r3, #0
	bne	.L47
	.loc 1 337 79 discriminator 1
	ldr	r3, [r7, #12]
	ldr	r3, [r3, #4]
	.loc 1 337 84 discriminator 1
	uxth	r3, r3
	.loc 1 335 20 discriminator 1
	uxtb	r3, r3
	uxth	r3, r3
	b	.L48
.L47:
	.loc 1 337 101 discriminator 2
	ldr	r3, [r7, #12]
	ldr	r3, [r3, #4]
	.loc 1 337 106 discriminator 2
	uxth	r3, r3
	.loc 1 335 20 discriminator 2
	and	r3, r3, #127
	uxth	r3, r3
.L48:
	.loc 1 335 20 is_stmt 0 discriminator 4
	ldr	r2, [r7, #8]
	strh	r3, [r2]	@ movhi
	.loc 1 349 1 is_stmt 1 discriminator 4
	b	.L55
.L46:
	.loc 1 338 15
	ldr	r3, [r7, #12]
	ldr	r2, .L56+8
	cmp	r3, r2
	bne	.L50
	.loc 1 341 42
	ldr	r3, .L56+4
	ldr	r3, [r3, #40]
	.loc 1 339 20
	cmp	r3, #0
	bne	.L51
	.loc 1 341 79 discriminator 1
	ldr	r3, [r7, #12]
	ldr	r3, [r3, #4]
	.loc 1 341 84 discriminator 1
	uxth	r3, r3
	.loc 1 339 20 discriminator 1
	uxtb	r3, r3
	uxth	r3, r3
	b	.L52
.L51:
	.loc 1 341 101 discriminator 2
	ldr	r3, [r7, #12]
	ldr	r3, [r3, #4]
	.loc 1 341 106 discriminator 2
	uxth	r3, r3
	.loc 1 339 20 discriminator 2
	and	r3, r3, #127
	uxth	r3, r3
.L52:
	.loc 1 339 20 is_stmt 0 discriminator 4
	ldr	r2, [r7, #8]
	strh	r3, [r2]	@ movhi
	.loc 1 349 1 is_stmt 1 discriminator 4
	b	.L55
.L50:
	.loc 1 342 15
	ldr	r3, [r7, #12]
	ldr	r2, .L56+12
	cmp	r3, r2
	bne	.L55
	.loc 1 345 42
	ldr	r3, .L56+4
	ldr	r3, [r3, #68]
	.loc 1 343 20
	cmp	r3, #0
	bne	.L53
	.loc 1 345 79 discriminator 1
	ldr	r3, [r7, #12]
	ldr	r3, [r3, #4]
	.loc 1 345 84 discriminator 1
	uxth	r3, r3
	.loc 1 343 20 discriminator 1
	uxtb	r3, r3
	uxth	r3, r3
	b	.L54
.L53:
	.loc 1 345 101 discriminator 2
	ldr	r3, [r7, #12]
	ldr	r3, [r3, #4]
	.loc 1 345 106 discriminator 2
	uxth	r3, r3
	.loc 1 343 20 discriminator 2
	and	r3, r3, #127
	uxth	r3, r3
.L54:
	.loc 1 343 20 is_stmt 0 discriminator 4
	ldr	r2, [r7, #8]
	strh	r3, [r2]	@ movhi
.L55:
	.loc 1 349 1 is_stmt 1
	nop
	adds	r7, r7, #20
	.cfi_def_cfa_offset 4
	mov	sp, r7
	.cfi_def_cfa_register 13
	@ sp needed
	pop	{r7}
	.cfi_restore 7
	.cfi_def_cfa_offset 0
	bx	lr
.L57:
	.align	2
.L56:
	.word	1073811456
	.word	Global_USART_cfg
	.word	1073759232
	.word	1073812480
	.cfi_endproc
.LFE8:
	.size	MCAL_USART_ReceiveData, .-MCAL_USART_ReceiveData
	.align	1
	.global	MCAL_USART_ReceiveBuffer
	.syntax unified
	.thumb
	.thumb_func
	.type	MCAL_USART_ReceiveBuffer, %function
MCAL_USART_ReceiveBuffer:
.LFB9:
	.loc 1 360 87
	.cfi_startproc
	@ args = 0, pretend = 0, frame = 24
	@ frame_needed = 1, uses_anonymous_args = 0
	push	{r7, lr}
	.cfi_def_cfa_offset 8
	.cfi_offset 7, -8
	.cfi_offset 14, -4
	sub	sp, sp, #24
	.cfi_def_cfa_offset 32
	add	r7, sp, #0
	.cfi_def_cfa_register 7
	str	r0, [r7, #12]
	str	r1, [r7, #8]
	mov	r3, r2
	strb	r3, [r7, #7]
	.loc 1 362 8
	ldrb	r3, [r7, #7]	@ zero_extendqisi2
	cmp	r3, #0
	beq	.L59
.LBB3:
	.loc 1 364 20
	movs	r3, #0
	strb	r3, [r7, #23]
	.loc 1 364 9
	b	.L60
.L61:
	.loc 1 365 65 discriminator 3
	ldrb	r3, [r7, #23]	@ zero_extendqisi2
	lsls	r3, r3, #1
	.loc 1 365 44 discriminator 3
	ldr	r2, [r7, #8]
	add	r3, r3, r2
	.loc 1 365 13 discriminator 3
	movs	r2, #0
	mov	r1, r3
	ldr	r0, [r7, #12]
	bl	MCAL_USART_ReceiveData
	.loc 1 364 40 discriminator 3
	ldrb	r3, [r7, #23]	@ zero_extendqisi2
	adds	r3, r3, #1
	strb	r3, [r7, #23]
.L60:
	.loc 1 364 29 discriminator 1
	ldrb	r2, [r7, #23]	@ zero_extendqisi2
	ldrb	r3, [r7, #7]	@ zero_extendqisi2
	cmp	r2, r3
	bcc	.L61
.LBE3:
	.loc 1 378 1
	b	.L66
.L59:
	.loc 1 370 13
	add	r3, r7, #22
	movs	r2, #0
	mov	r1, r3
	ldr	r0, [r7, #12]
	bl	MCAL_USART_ReceiveData
	.loc 1 371 22
	ldrb	r3, [r7, #22]	@ zero_extendqisi2
	.loc 1 371 16
	cmp	r3, #13
	beq	.L65
	.loc 1 374 30
	ldrb	r1, [r7, #22]	@ zero_extendqisi2
	.loc 1 374 27
	ldr	r3, [r7, #8]
	adds	r2, r3, #2
	str	r2, [r7, #8]
	.loc 1 374 30
	mov	r2, r1
	strh	r2, [r3]	@ movhi
	.loc 1 370 13
	b	.L59
.L65:
	.loc 1 372 17
	nop
.L66:
	.loc 1 378 1
	nop
	adds	r7, r7, #24
	.cfi_def_cfa_offset 8
	mov	sp, r7
	.cfi_def_cfa_register 13
	@ sp needed
	pop	{r7, pc}
	.cfi_endproc
.LFE9:
	.size	MCAL_USART_ReceiveBuffer, .-MCAL_USART_ReceiveBuffer
	.align	1
	.global	MCAL_USART_Wait_TC
	.syntax unified
	.thumb
	.thumb_func
	.type	MCAL_USART_Wait_TC, %function
MCAL_USART_Wait_TC:
.LFB10:
	.loc 1 400 48
	.cfi_startproc
	@ args = 0, pretend = 0, frame = 8
	@ frame_needed = 1, uses_anonymous_args = 0
	@ link register save eliminated.
	push	{r7}
	.cfi_def_cfa_offset 4
	.cfi_offset 7, -4
	sub	sp, sp, #12
	.cfi_def_cfa_offset 16
	add	r7, sp, #0
	.cfi_def_cfa_register 7
	str	r0, [r7, #4]
	.loc 1 402 11
	nop
.L68:
	.loc 1 402 20 discriminator 1
	ldr	r3, [r7, #4]
	ldr	r3, [r3]
	.loc 1 402 25 discriminator 1
	and	r3, r3, #64
	.loc 1 402 12 discriminator 1
	cmp	r3, #0
	beq	.L68
	.loc 1 403 1
	nop
	nop
	adds	r7, r7, #12
	.cfi_def_cfa_offset 4
	mov	sp, r7
	.cfi_def_cfa_register 13
	@ sp needed
	pop	{r7}
	.cfi_restore 7
	.cfi_def_cfa_offset 0
	bx	lr
	.cfi_endproc
.LFE10:
	.size	MCAL_USART_Wait_TC, .-MCAL_USART_Wait_TC
	.align	1
	.global	USART1_IRQHandler
	.syntax unified
	.thumb
	.thumb_func
	.type	USART1_IRQHandler, %function
USART1_IRQHandler:
.LFB11:
	.loc 1 410 30
	.cfi_startproc
	@ args = 0, pretend = 0, frame = 0
	@ frame_needed = 1, uses_anonymous_args = 0
	push	{r7, lr}
	.cfi_def_cfa_offset 8
	.cfi_offset 7, -8
	.cfi_offset 14, -4
	add	r7, sp, #0
	.cfi_def_cfa_register 7
	.loc 1 411 5
	movs	r0, #37
	bl	MCAL_NVIC_ClearPendingIRQ
	.loc 1 413 28
	ldr	r3, .L72
	ldr	r3, [r3, #24]
	.loc 1 413 8
	cmp	r3, #0
	beq	.L71
	.loc 1 414 28
	ldr	r3, .L72
	ldr	r3, [r3, #24]
	.loc 1 414 9
	blx	r3
.LVL0:
.L71:
	.loc 1 418 1
	nop
	pop	{r7, pc}
.L73:
	.align	2
.L72:
	.word	Global_USART_cfg
	.cfi_endproc
.LFE11:
	.size	USART1_IRQHandler, .-USART1_IRQHandler
	.align	1
	.global	USART2_IRQHandler
	.syntax unified
	.thumb
	.thumb_func
	.type	USART2_IRQHandler, %function
USART2_IRQHandler:
.LFB12:
	.loc 1 425 30
	.cfi_startproc
	@ args = 0, pretend = 0, frame = 0
	@ frame_needed = 1, uses_anonymous_args = 0
	push	{r7, lr}
	.cfi_def_cfa_offset 8
	.cfi_offset 7, -8
	.cfi_offset 14, -4
	add	r7, sp, #0
	.cfi_def_cfa_register 7
	.loc 1 426 5
	movs	r0, #38
	bl	MCAL_NVIC_ClearPendingIRQ
	.loc 1 428 28
	ldr	r3, .L77
	ldr	r3, [r3, #52]
	.loc 1 428 8
	cmp	r3, #0
	beq	.L76
	.loc 1 429 28
	ldr	r3, .L77
	ldr	r3, [r3, #52]
	.loc 1 429 9
	blx	r3
.LVL1:
.L76:
	.loc 1 433 1
	nop
	pop	{r7, pc}
.L78:
	.align	2
.L77:
	.word	Global_USART_cfg
	.cfi_endproc
.LFE12:
	.size	USART2_IRQHandler, .-USART2_IRQHandler
	.align	1
	.global	USART6_IRQHandler
	.syntax unified
	.thumb
	.thumb_func
	.type	USART6_IRQHandler, %function
USART6_IRQHandler:
.LFB13:
	.loc 1 440 30
	.cfi_startproc
	@ args = 0, pretend = 0, frame = 0
	@ frame_needed = 1, uses_anonymous_args = 0
	push	{r7, lr}
	.cfi_def_cfa_offset 8
	.cfi_offset 7, -8
	.cfi_offset 14, -4
	add	r7, sp, #0
	.cfi_def_cfa_register 7
	.loc 1 441 5
	movs	r0, #71
	bl	MCAL_NVIC_ClearPendingIRQ
	.loc 1 443 28
	ldr	r3, .L82
	ldr	r3, [r3, #80]
	.loc 1 443 8
	cmp	r3, #0
	beq	.L81
	.loc 1 444 28
	ldr	r3, .L82
	ldr	r3, [r3, #80]
	.loc 1 444 9
	blx	r3
.LVL2:
.L81:
	.loc 1 448 1
	nop
	pop	{r7, pc}
.L83:
	.align	2
.L82:
	.word	Global_USART_cfg
	.cfi_endproc
.LFE13:
	.size	USART6_IRQHandler, .-USART6_IRQHandler
.Letext0:
	.file 2 "/opt/st/stm32cubeclt_1.16.0/GNU-tools-for-STM32/arm-none-eabi/include/machine/_default_types.h"
	.file 3 "/opt/st/stm32cubeclt_1.16.0/GNU-tools-for-STM32/arm-none-eabi/include/sys/_stdint.h"
	.file 4 "drivers/Inc/Platform_Types.h"
	.file 5 "drivers/Inc/stm32f401xx.h"
	.file 6 "drivers/Inc/stm32f401xx_gpio_driver.h"
	.file 7 "drivers/Inc/stm32f401xx_usart_driver.h"
	.file 8 "drivers/Inc/stm32f401xx_nvic_driver.h"
	.file 9 "drivers/Inc/stm32f401xx_rcc_driver.h"