	.cpu cortex-m4
	.arch armv7e-m
	.fpu softvfp
	.eabi_attribute 20, 1
	.eabi_attribute 21, 1
	.eabi_attribute 23, 3
	.eabi_attribute 24, 1
	.eabi_attribute 25, 1
	.eabi_attribute 26, 1
	.eabi_attribute 30, 6
	.eabi_attribute 34, 1
	.eabi_attribute 18, 4
	.file	"stm32f401xx_gpio_driver.c"
	.text
.Ltext0:
	.cfi_sections	.debug_frame
	.file 1 "drivers/Src/stm32f401xx_gpio_driver.c"
	.align	1
	.global	MCAL_GPIO_Init
	.syntax unified
	.thumb
	.thumb_func
	.type	MCAL_GPIO_Init, %function
MCAL_GPIO_Init:
.LFB3:
	.loc 1 30 71
	.cfi_startproc
	@ args = 0, pretend = 0, frame = 24
	@ frame_needed = 1, uses_anonymous_args = 0
	push	{r7, lr}
	.cfi_def_cfa_offset 8
	.cfi_offset 7, -8
	.cfi_offset 14, -4
	sub	sp, sp, #24
	.cfi_def_cfa_offset 32
	add	r7, sp, #0
	.cfi_def_cfa_register 7
	str	r0, [r7, #4]
	str	r1, [r7]
	.loc 1 31 32
	ldr	r3, [r7]
	ldrh	r3, [r3, #2]
	.loc 1 31 11
	strb	r3, [r7, #23]
	.loc 1 34 18
	ldr	r3, [r7]
	ldrb	r3, [r3]	@ zero_extendqisi2
	.loc 1 34 8
	cmp	r3, #3
	bhi	.L2
	.loc 1 35 14
	ldr	r3, [r7, #4]
	ldr	r3, [r3]
	.loc 1 35 45
	ldrb	r2, [r7, #23]	@ zero_extendqisi2
	lsls	r2, r2, #1
	.loc 1 35 31
	movs	r1, #3
	lsl	r2, r1, r2
	.loc 1 35 25
	mvns	r2, r2
	.loc 1 35 22
	ands	r2, r2, r3
	ldr	r3, [r7, #4]
	str	r2, [r3]
	.loc 1 36 14
	ldr	r3, [r7, #4]
	ldr	r3, [r3]
	.loc 1 36 35
	ldr	r2, [r7]
	ldrb	r2, [r2]	@ zero_extendqisi2
	mov	r1, r2
	.loc 1 36 61
	ldrb	r2, [r7, #23]	@ zero_extendqisi2
	lsls	r2, r2, #1
	.loc 1 36 47
	lsl	r2, r1, r2
	.loc 1 36 22
	orrs	r2, r2, r3
	ldr	r3, [r7, #4]
	str	r2, [r3]
	b	.L3
.L2:
.LBB2:
	.loc 1 39 22
	ldr	r3, [r7]
	ldrb	r3, [r3]	@ zero_extendqisi2
	.loc 1 39 12
	cmp	r3, #4
	bne	.L4
	.loc 1 40 17
	ldr	r3, .L20
	ldr	r3, [r3, #12]
	.loc 1 40 31
	ldrb	r2, [r7, #23]	@ zero_extendqisi2
	movs	r1, #1
	lsl	r2, r1, r2
	mov	r1, r2
	.loc 1 40 17
	ldr	r2, .L20
	.loc 1 40 24
	orrs	r3, r3, r1
	str	r3, [r2, #12]
	.loc 1 41 17
	ldr	r3, .L20
	ldr	r3, [r3, #8]
	.loc 1 41 31
	ldrb	r2, [r7, #23]	@ zero_extendqisi2
	movs	r1, #1
	lsl	r2, r1, r2
	.loc 1 41 27
	mvns	r2, r2
	mov	r1, r2
	.loc 1 41 17
	ldr	r2, .L20
	.loc 1 41 24
	ands	r3, r3, r1
	str	r3, [r2, #8]
	b	.L5
.L4:
	.loc 1 42 29
	ldr	r3, [r7]
	ldrb	r3, [r3]	@ zero_extendqisi2
	.loc 1 42 19
	cmp	r3, #5
	bne	.L6
	.loc 1 43 17
	ldr	r3, .L20
	ldr	r3, [r3, #8]
	.loc 1 43 31
	ldrb	r2, [r7, #23]	@ zero_extendqisi2
	movs	r1, #1
	lsl	r2, r1, r2
	mov	r1, r2
	.loc 1 43 17
	ldr	r2, .L20
	.loc 1 43 24
	orrs	r3, r3, r1
	str	r3, [r2, #8]
	.loc 1 44 17
	ldr	r3, .L20
	ldr	r3, [r3, #12]
	.loc 1 44 31
	ldrb	r2, [r7, #23]	@ zero_extendqisi2
	movs	r1, #1
	lsl	r2, r1, r2
	.loc 1 44 27
	mvns	r2, r2
	mov	r1, r2
	.loc 1 44 17
	ldr	r2, .L20
	.loc 1 44 24
	ands	r3, r3, r1
	str	r3, [r2, #12]
	b	.L5
.L6:
	.loc 1 45 29
	ldr	r3, [r7]
	ldrb	r3, [r3]	@ zero_extendqisi2
	.loc 1 45 19
	cmp	r3, #6
	bne	.L5
	.loc 1 46 17
	ldr	r3, .L20
	ldr	r3, [r3, #12]
	.loc 1 46 31
	ldrb	r2, [r7, #23]	@ zero_extendqisi2
	movs	r1, #1
	lsl	r2, r1, r2
	mov	r1, r2
	.loc 1 46 17
	ldr	r2, .L20
	.loc 1 46 24
	orrs	r3, r3, r1
	str	r3, [r2, #12]
	.loc 1 47 17
	ldr	r3, .L20
	ldr	r3, [r3, #8]
	.loc 1 47 31
	ldrb	r2, [r7, #23]	@ zero_extendqisi2
	movs	r1, #1
	lsl	r2, r1, r2
	mov	r1, r2
	.loc 1 47 17
	ldr	r2, .L20
	.loc 1 47 24
	orrs	r3, r3, r1
	str	r3, [r2, #8]
.L5:
	.loc 1 51 34
	ldrb	r3, [r7, #23]	@ zero_extendqisi2
	lsrs	r3, r3, #2
	uxtb	r3, r3
	.loc 1 51 16
	str	r3, [r7, #16]
	.loc 1 52 24
	ldrb	r3, [r7, #23]	@ zero_extendqisi2
	uxth	r3, r3
	.loc 1 52 16
	and	r3, r3, #3
	strh	r3, [r7, #14]	@ movhi
	.loc 1 53 16
	ldr	r3, [r7, #4]
	ldr	r2, .L20+4
	cmp	r3, r2
	beq	.L7
	.loc 1 53 16 is_stmt 0 discriminator 1
	ldr	r3, [r7, #4]
	ldr	r2, .L20+8
	cmp	r3, r2
	beq	.L8
	.loc 1 53 16 discriminator 3
	ldr	r3, [r7, #4]
	ldr	r2, .L20+12
	cmp	r3, r2
	beq	.L9
	.loc 1 53 16 discriminator 5
	ldr	r3, [r7, #4]
	ldr	r2, .L20+16
	cmp	r3, r2
	beq	.L10
	.loc 1 53 16 discriminator 7
	ldr	r3, [r7, #4]
	ldr	r2, .L20+20
	cmp	r3, r2
	bne	.L11
	.loc 1 53 16 discriminator 9
	movs	r3, #4
	b	.L16
.L11:
	.loc 1 53 16 discriminator 10
	movs	r3, #0
	b	.L16
.L10:
	.loc 1 53 16 discriminator 8
	movs	r3, #3
	b	.L16
.L9:
	.loc 1 53 16 discriminator 6
	movs	r3, #2
	b	.L16
.L8:
	.loc 1 53 16 discriminator 4
	movs	r3, #1
	b	.L16
.L7:
	.loc 1 53 16 discriminator 2
	movs	r3, #0
.L16:
	.loc 1 53 16 discriminator 20
	strh	r3, [r7, #12]	@ movhi
	.loc 1 54 9 is_stmt 1 discriminator 20
	movs	r0, #17
	bl	MCAL_RCC_Enable_Peripheral
	.loc 1 55 33 discriminator 20
	ldrh	r2, [r7, #12]
	.loc 1 55 56 discriminator 20
	ldrh	r3, [r7, #14]
	lsls	r3, r3, #2
	.loc 1 55 15 discriminator 20
	ldr	r1, .L20+24
	.loc 1 55 50 discriminator 20
	lsls	r2, r2, r3
	.loc 1 55 31 discriminator 20
	ldr	r3, [r7, #16]
	adds	r3, r3, #2
	str	r2, [r1, r3, lsl #2]
	.loc 1 58 13 discriminator 20
	ldr	r3, .L20
	ldr	r3, [r3]
	.loc 1 58 26 discriminator 20
	ldrb	r2, [r7, #23]	@ zero_extendqisi2
	movs	r1, #1
	lsl	r2, r1, r2
	mov	r1, r2
	.loc 1 58 13 discriminator 20
	ldr	r2, .L20
	.loc 1 58 19 discriminator 20
	orrs	r3, r3, r1
	str	r3, [r2]
.L3:
.LBE2:
	.loc 1 62 10
	ldr	r3, [r7, #4]
	ldr	r3, [r3, #4]
	.loc 1 62 28
	ldrb	r2, [r7, #23]	@ zero_extendqisi2
	movs	r1, #1
	lsl	r2, r1, r2
	.loc 1 62 22
	mvns	r2, r2
	.loc 1 62 19
	ands	r2, r2, r3
	ldr	r3, [r7, #4]
	str	r2, [r3, #4]
	.loc 1 63 10
	ldr	r3, [r7, #4]
	ldr	r2, [r3, #4]
	.loc 1 63 32
	ldr	r3, [r7]
	ldr	r1, [r3, #8]
	.loc 1 63 49
	ldrb	r3, [r7, #23]	@ zero_extendqisi2
	lsl	r3, r1, r3
	.loc 1 63 19
	orrs	r2, r2, r3
	ldr	r3, [r7, #4]
	str	r2, [r3, #4]
	.loc 1 66 10
	ldr	r3, [r7, #4]
	ldr	r3, [r3, #8]
	.loc 1 66 43
	ldrb	r2, [r7, #23]	@ zero_extendqisi2
	lsls	r2, r2, #1
	.loc 1 66 29
	movs	r1, #3
	lsl	r2, r1, r2
	.loc 1 66 23
	mvns	r2, r2
	.loc 1 66 20
	ands	r2, r2, r3
	ldr	r3, [r7, #4]
	str	r2, [r3, #8]
	.loc 1 67 10
	ldr	r3, [r7, #4]
	ldr	r3, [r3, #8]
	.loc 1 67 33
	ldr	r2, [r7]
	ldrb	r2, [r2, #1]	@ zero_extendqisi2
	mov	r1, r2
	.loc 1 67 63
	ldrb	r2, [r7, #23]	@ zero_extendqisi2
	lsls	r2, r2, #1
	.loc 1 67 49
	lsl	r2, r1, r2
	.loc 1 67 20
	orrs	r2, r2, r3
	ldr	r3, [r7, #4]
	str	r2, [r3, #8]
	.loc 1 70 10
	ldr	r3, [r7, #4]
	ldr	r3, [r3, #12]
	.loc 1 70 41
	ldrb	r2, [r7, #23]	@ zero_extendqisi2
	lsls	r2, r2, #1
	.loc 1 70 27
	movs	r1, #3
	lsl	r2, r1, r2
	.loc 1 70 21
	mvns	r2, r2
	.loc 1 70 18
	ands	r2, r2, r3
	ldr	r3, [r7, #4]
	str	r2, [r3, #12]
	.loc 1 71 10
	ldr	r3, [r7, #4]
	ldr	r2, [r3, #12]
	.loc 1 71 31
	ldr	r3, [r7]
	ldr	r1, [r3, #4]
	.loc 1 71 67
	ldrb	r3, [r7, #23]	@ zero_extendqisi2
	lsls	r3, r3, #1
	.loc 1 71 53
	lsl	r3, r1, r3
	.loc 1 71 18
	orrs	r2, r2, r3
	ldr	r3, [r7, #4]
	str	r2, [r3, #12]
	.loc 1 74 18
	ldr	r3, [r7]
	ldrb	r3, [r3]	@ zero_extendqisi2
	.loc 1 74 8
	cmp	r3, #2
	bne	.L19
	.loc 1 75 12
	ldrb	r3, [r7, #23]	@ zero_extendqisi2
	cmp	r3, #7
	bhi	.L18
	.loc 1 76 23
	ldr	r3, [r7, #4]
	ldr	r3, [r3, #32]
	.loc 1 76 50
	ldrb	r2, [r7, #23]	@ zero_extendqisi2
	lsls	r2, r2, #2
	.loc 1 76 36
	movs	r1, #15
	lsl	r2, r1, r2
	.loc 1 76 30
	mvns	r2, r2
	.loc 1 76 27
	ands	r2, r2, r3
	ldr	r3, [r7, #4]
	str	r2, [r3, #32]
	.loc 1 77 23
	ldr	r3, [r7, #4]
	ldr	r2, [r3, #32]
	.loc 1 77 40
	ldr	r3, [r7]
	ldr	r1, [r3, #12]
	.loc 1 77 75
	ldrb	r3, [r7, #23]	@ zero_extendqisi2
	lsls	r3, r3, #2
	.loc 1 77 61
	lsl	r3, r1, r3
	.loc 1 77 27
	orrs	r2, r2, r3
	ldr	r3, [r7, #4]
	str	r2, [r3, #32]
	.loc 1 83 1
	b	.L19
.L18:
	.loc 1 79 23
	ldr	r3, [r7, #4]
	ldr	r3, [r3, #36]
	.loc 1 79 51
	ldrb	r2, [r7, #23]	@ zero_extendqisi2
	subs	r2, r2, #8
	.loc 1 79 56
	lsls	r2, r2, #2
	.loc 1 79 36
	movs	r1, #15
	lsl	r2, r1, r2
	.loc 1 79 30
	mvns	r2, r2
	.loc 1 79 27
	ands	r2, r2, r3
	ldr	r3, [r7, #4]
	str	r2, [r3, #36]
	.loc 1 80 23
	ldr	r3, [r7, #4]
	ldr	r2, [r3, #36]
	.loc 1 80 40
	ldr	r3, [r7]
	ldr	r1, [r3, #12]
	.loc 1 80 76
	ldrb	r3, [r7, #23]	@ zero_extendqisi2
	subs	r3, r3, #8
	.loc 1 80 81
	lsls	r3, r3, #2
	.loc 1 80 61
	lsl	r3, r1, r3
	.loc 1 80 27
	orrs	r2, r2, r3
	ldr	r3, [r7, #4]
	str	r2, [r3, #36]
.L19:
	.loc 1 83 1
	nop
	adds	r7, r7, #24
	.cfi_def_cfa_offset 8
	mov	sp, r7
	.cfi_def_cfa_register 13
	@ sp needed
	pop	{r7, pc}
.L21:
	.align	2
.L20:
	.word	1073822720
	.word	1073872896
	.word	1073873920
	.word	1073874944
	.word	1073875968
	.word	1073876992
	.word	1073821696
	.cfi_endproc
.LFE3:
	.size	MCAL_GPIO_Init, .-MCAL_GPIO_Init
	.align	1
	.global	MCAL_GPIO_DeInit
	.syntax unified
	.thumb
	.thumb_func
	.type	MCAL_GPIO_DeInit, %function
MCAL_GPIO_DeInit:
.LFB4:
	.loc 1 96 44
	.cfi_startproc
	@ args = 0, pretend = 0, frame = 8
	@ frame_needed = 1, uses_anonymous_args = 0
	@ link register save eliminated.
	push	{r7}
	.cfi_def_cfa_offset 4
	.cfi_offset 7, -4
	sub	sp, sp, #12
	.cfi_def_cfa_offset 16
	add	r7, sp, #0
	.cfi_def_cfa_register 7
	str	r0, [r7, #4]
	.loc 1 97 8
	ldr	r3, [r7, #4]
	ldr	r2, .L29
	cmp	r3, r2
	bne	.L23
	.loc 1 98 12
	ldr	r3, .L29+4
	ldr	r3, [r3, #16]
	ldr	r2, .L29+4
	.loc 1 98 23
	orr	r3, r3, #1
	str	r3, [r2, #16]
	.loc 1 99 12
	ldr	r3, .L29+4
	ldr	r3, [r3, #16]
	ldr	r2, .L29+4
	.loc 1 99 23
	bic	r3, r3, #1
	str	r3, [r2, #16]
	.loc 1 113 1
	b	.L28
.L23:
	.loc 1 100 15
	ldr	r3, [r7, #4]
	ldr	r2, .L29+8
	cmp	r3, r2
	bne	.L25
	.loc 1 101 12
	ldr	r3, .L29+4
	ldr	r3, [r3, #16]
	ldr	r2, .L29+4
	.loc 1 101 23
	orr	r3, r3, #2
	str	r3, [r2, #16]
	.loc 1 102 12
	ldr	r3, .L29+4
	ldr	r3, [r3, #16]
	ldr	r2, .L29+4
	.loc 1 102 23
	bic	r3, r3, #2
	str	r3, [r2, #16]
	.loc 1 113 1
	b	.L28
.L25:
	.loc 1 103 15
	ldr	r3, [r7, #4]
	ldr	r2, .L29+12
	cmp	r3, r2
	bne	.L26
	.loc 1 104 12
	ldr	r3, .L29+4
	ldr	r3, [r3, #16]
	ldr	r2, .L29+4
	.loc 1 104 23
	orr	r3, r3, #4
	str	r3, [r2, #16]
	.loc 1 105 12
	ldr	r3, .L29+4
	ldr	r3, [r3, #16]
	ldr	r2, .L29+4
	.loc 1 105 23
	bic	r3, r3, #4
	str	r3, [r2, #16]
	.loc 1 113 1
	b	.L28
.L26:
	.loc 1 106 15
	ldr	r3, [r7, #4]
	ldr	r2, .L29+16
	cmp	r3, r2
	bne	.L27
	.loc 1 107 12
	ldr	r3, .L29+4
	ldr	r3, [r3, #16]
	ldr	r2, .L29+4
	.loc 1 107 23
	orr	r3, r3, #8
	str	r3, [r2, #16]
	.loc 1 108 12
	ldr	r3, .L29+4
	ldr	r3, [r3, #16]
	ldr	r2, .L29+4
	.loc 1 108 23
	bic	r3, r3, #8
	str	r3, [r2, #16]
	.loc 1 113 1
	b	.L28
.L27:
	.loc 1 109 15
	ldr	r3, [r7, #4]
	ldr	r2, .L29+20
	cmp	r3, r2
	bne	.L28
	.loc 1 110 12
	ldr	r3, .L29+4
	ldr	r3, [r3, #16]
	ldr	r2, .L29+4
	.loc 1 110 23
	orr	r3, r3, #16
	str	r3, [r2, #16]
	.loc 1 111 12
	ldr	r3, .L29+4
	ldr	r3, [r3, #16]
	ldr	r2, .L29+4
	.loc 1 111 23
	bic	r3, r3, #16
	str	r3, [r2, #16]
.L28:
	.loc 1 113 1
	nop
	adds	r7, r7, #12
	.cfi_def_cfa_offset 4
	mov	sp, r7
	.cfi_def_cfa_register 13
	@ sp needed
	pop	{r7}
	.cfi_restore 7
	.cfi_def_cfa_offset 0
	bx	lr
.L30:
	.align	2
.L29:
	.word	1073872896
	.word	1073887232
	.word	1073873920
	.word	1073874944
	.word	1073875968
	.word	1073876992
	.cfi_endproc
.LFE4:
	.size	MCAL_GPIO_DeInit, .-MCAL_GPIO_DeInit
	.align	1
	.global	MCAL_GPIO_ReadPin
	.syntax unified
	.thumb
	.thumb_func
	.type	MCAL_GPIO_ReadPin, %function
MCAL_GPIO_ReadPin:
.LFB5:
	.loc 1 127 64
	.cfi_startproc
	@ args = 0, pretend = 0, frame = 16
	@ frame_needed = 1, uses_anonymous_args = 0
	@ link register save eliminated.
	push	{r7}
	.cfi_def_cfa_offset 4
	.cfi_offset 7, -4
	sub	sp, sp, #20
	.cfi_def_cfa_offset 24
	add	r7, sp, #0
	.cfi_def_cfa_register 7
	str	r0, [r7, #4]
	mov	r3, r1
	strh	r3, [r7, #2]	@ movhi
	.loc 1 129 30
	ldr	r3, [r7, #4]
	ldr	r2, [r3, #16]
	.loc 1 129 37
	ldrh	r3, [r7, #2]
	lsr	r3, r2, r3
	.loc 1 129 13
	uxtb	r3, r3
	.loc 1 129 11
	and	r3, r3, #1
	strb	r3, [r7, #15]
	.loc 1 130 12
	ldrb	r3, [r7, #15]	@ zero_extendqisi2
	.loc 1 131 1
	mov	r0, r3
	adds	r7, r7, #20
	.cfi_def_cfa_offset 4
	mov	sp, r7
	.cfi_def_cfa_register 13
	@ sp needed
	pop	{r7}
	.cfi_restore 7
	.cfi_def_cfa_offset 0
	bx	lr
	.cfi_endproc
.LFE5:
	.size	MCAL_GPIO_ReadPin, .-MCAL_GPIO_ReadPin
	.align	1
	.global	MCAL_GPIO_ReadPort
	.syntax unified
	.thumb
	.thumb_func
	.type	MCAL_GPIO_ReadPort, %function
MCAL_GPIO_ReadPort:
.LFB6:
	.loc 1 144 48
	.cfi_startproc
	@ args = 0, pretend = 0, frame = 16
	@ frame_needed = 1, uses_anonymous_args = 0
	@ link register save eliminated.
	push	{r7}
	.cfi_def_cfa_offset 4
	.cfi_offset 7, -4
	sub	sp, sp, #20
	.cfi_def_cfa_offset 24
	add	r7, sp, #0
	.cfi_def_cfa_register 7
	str	r0, [r7, #4]
	.loc 1 145 38
	ldr	r3, [r7, #4]
	ldr	r3, [r3, #16]
	.loc 1 145 12
	strh	r3, [r7, #14]	@ movhi
	.loc 1 146 12
	ldrh	r3, [r7, #14]
	.loc 1 147 1
	mov	r0, r3
	adds	r7, r7, #20
	.cfi_def_cfa_offset 4
	mov	sp, r7
	.cfi_def_cfa_register 13
	@ sp needed
	pop	{r7}
	.cfi_restore 7
	.cfi_def_cfa_offset 0
	bx	lr
	.cfi_endproc
.LFE6:
	.size	MCAL_GPIO_ReadPort, .-MCAL_GPIO_ReadPort
	.align	1
	.global	MCAL_GPIO_WritePin
	.syntax unified
	.thumb
	.thumb_func
	.type	MCAL_GPIO_WritePin, %function
MCAL_GPIO_WritePin:
.LFB7:
	.loc 1 162 77
	.cfi_startproc
	@ args = 0, pretend = 0, frame = 8
	@ frame_needed = 1, uses_anonymous_args = 0
	@ link register save eliminated.
	push	{r7}
	.cfi_def_cfa_offset 4
	.cfi_offset 7, -4
	sub	sp, sp, #12
	.cfi_def_cfa_offset 16
	add	r7, sp, #0
	.cfi_def_cfa_register 7
	str	r0, [r7, #4]
	mov	r3, r1
	strh	r3, [r7, #2]	@ movhi
	mov	r3, r2
	strb	r3, [r7, #1]
	.loc 1 163 8
	ldrb	r3, [r7, #1]	@ zero_extendqisi2
	cmp	r3, #0
	beq	.L36
	.loc 1 164 14
	ldr	r3, [r7, #4]
	ldr	r3, [r3, #20]
	.loc 1 164 36
	ldrh	r2, [r7, #2]
	movs	r1, #1
	lsl	r2, r1, r2
	.loc 1 164 20
	orrs	r2, r2, r3
	ldr	r3, [r7, #4]
	str	r2, [r3, #20]
	.loc 1 168 1
	b	.L38
.L36:
	.loc 1 166 14
	ldr	r3, [r7, #4]
	ldr	r2, [r3, #20]
	.loc 1 166 37
	ldrh	r3, [r7, #2]
	movs	r1, #1
	lsl	r3, r1, r3
	.loc 1 166 23
	mvns	r3, r3
	.loc 1 166 20
	ands	r2, r2, r3
	ldr	r3, [r7, #4]
	str	r2, [r3, #20]
.L38:
	.loc 1 168 1
	nop
	adds	r7, r7, #12
	.cfi_def_cfa_offset 4
	mov	sp, r7
	.cfi_def_cfa_register 13
	@ sp needed
	pop	{r7}
	.cfi_restore 7
	.cfi_def_cfa_offset 0
	bx	lr
	.cfi_endproc
.LFE7:
	.size	MCAL_GPIO_WritePin, .-MCAL_GPIO_WritePin
	.align	1
	.global	MCAL_GPIO_WritePort
	.syntax unified
	.thumb
	.thumb_func
	.type	MCAL_GPIO_WritePort, %function
MCAL_GPIO_WritePort:
.LFB8:
	.loc 1 182 61
	.cfi_startproc
	@ args = 0, pretend = 0, frame = 8
	@ frame_needed = 1, uses_anonymous_args = 0
	@ link register save eliminated.
	push	{r7}
	.cfi_def_cfa_offset 4
	.cfi_offset 7, -4
	sub	sp, sp, #12
	.cfi_def_cfa_offset 16
	add	r7, sp, #0
	.cfi_def_cfa_register 7
	str	r0, [r7, #4]
	mov	r3, r1
	strh	r3, [r7, #2]	@ movhi
	.loc 1 183 18
	ldrh	r2, [r7, #2]
	.loc 1 183 16
	ldr	r3, [r7, #4]
	str	r2, [r3, #20]
	.loc 1 184 1
	nop
	adds	r7, r7, #12
	.cfi_def_cfa_offset 4
	mov	sp, r7
	.cfi_def_cfa_register 13
	@ sp needed
	pop	{r7}
	.cfi_restore 7
	.cfi_def_cfa_offset 0
	bx	lr
	.cfi_endproc
.LFE8:
	.size	MCAL_GPIO_WritePort, .-MCAL_GPIO_WritePort
	.align	1
	.global	MCAL_GPIO_TogglePin
	.syntax unified
	.thumb
	.thumb_func
	.type	MCAL_GPIO_TogglePin, %function
MCAL_GPIO_TogglePin:
.LFB9:
	.loc 1 198 65
	.cfi_startproc
	@ args = 0, pretend = 0, frame = 8
	@ frame_needed = 1, uses_anonymous_args = 0
	@ link register save eliminated.
	push	{r7}
	.cfi_def_cfa_offset 4
	.cfi_offset 7, -4
	sub	sp, sp, #12
	.cfi_def_cfa_offset 16
	add	r7, sp, #0
	.cfi_def_cfa_register 7
	str	r0, [r7, #4]
	mov	r3, r1
	strh	r3, [r7, #2]	@ movhi
	.loc 1 199 10
	ldr	r3, [r7, #4]
	ldr	r3, [r3, #20]
	.loc 1 199 22
	ldrh	r2, [r7, #2]
	movs	r1, #1
	lsl	r2, r1, r2
	.loc 1 199 16
	eors	r2, r2, r3
	ldr	r3, [r7, #4]
	str	r2, [r3, #20]
	.loc 1 200 1
	nop
	adds	r7, r7, #12
	.cfi_def_cfa_offset 4
	mov	sp, r7
	.cfi_def_cfa_register 13
	@ sp needed
	pop	{r7}
	.cfi_restore 7
	.cfi_def_cfa_offset 0
	bx	lr
	.cfi_endproc
.LFE9:
	.size	MCAL_GPIO_TogglePin, .-MCAL_GPIO_TogglePin
	.align	1
	.global	MCAL_GPIO_TogglePort
	.syntax unified
	.thumb
	.thumb_func
	.type	MCAL_GPIO_TogglePort, %function
MCAL_GPIO_TogglePort:
.LFB10:
	.loc 1 213 47
	.cfi_startproc
	@ args = 0, pretend = 0, frame = 8
	@ frame_needed = 1, uses_anonymous_args = 0
	@ link register save eliminated.
	push	{r7}
	.cfi_def_cfa_offset 4
	.cfi_offset 7, -4
	sub	sp, sp, #12
	.cfi_def_cfa_offset 16
	add	r7, sp, #0
	.cfi_def_cfa_register 7
	str	r0, [r7, #4]
	.loc 1 214 7
	ldr	r3, [r7, #4]
	ldr	r3, [r3, #20]
	.loc 1 214 13
	eor	r3, r3, #65280
	eor	r3, r3, #255
	ldr	r2, [r7, #4]
	str	r3, [r2, #20]
	.loc 1 215 1
	nop
	adds	r7, r7, #12
	.cfi_def_cfa_offset 4
	mov	sp, r7
	.cfi_def_cfa_register 13
	@ sp needed
	pop	{r7}
	.cfi_restore 7
	.cfi_def_cfa_offset 0
	bx	lr
	.cfi_endproc
.LFE10:
	.size	MCAL_GPIO_TogglePort, .-MCAL_GPIO_TogglePort
	.align	1
	.global	MCAL_GPIO_LockPin
	.syntax unified
	.thumb
	.thumb_func
	.type	MCAL_GPIO_LockPin, %function
MCAL_GPIO_LockPin:
.LFB11:
	.loc 1 237 64
	.cfi_startproc
	@ args = 0, pretend = 0, frame = 16
	@ frame_needed = 1, uses_anonymous_args = 0
	@ link register save eliminated.
	push	{r7}
	.cfi_def_cfa_offset 4
	.cfi_offset 7, -4
	sub	sp, sp, #20
	.cfi_def_cfa_offset 24
	add	r7, sp, #0
	.cfi_def_cfa_register 7
	str	r0, [r7, #4]
	mov	r3, r1
	strh	r3, [r7, #2]	@ movhi
	.loc 1 244 38
	ldrh	r3, [r7, #2]
	orr	r3, r3, #65536
	.loc 1 244 21
	str	r3, [r7, #12]
	.loc 1 247 17
	ldr	r2, [r7, #12]
	ldr	r3, [r7, #4]
	str	r2, [r3, #28]
	.loc 1 250 17
	ldrh	r2, [r7, #2]
	ldr	r3, [r7, #4]
	str	r2, [r3, #28]
	.loc 1 253 17
	ldr	r2, [r7, #12]
	ldr	r3, [r7, #4]
	str	r2, [r3, #28]
	.loc 1 256 17
	ldr	r3, [r7, #4]
	ldr	r3, [r3, #28]
	.loc 1 256 10
	str	r3, [r7, #12]
	.loc 1 259 23
	ldr	r3, [r7, #4]
	ldr	r3, [r3, #28]
	.loc 1 259 9
	and	r3, r3, #65536
	.loc 1 259 8
	cmp	r3, #0
	beq	.L43
	.loc 1 260 16
	movs	r3, #1
	b	.L44
.L43:
	.loc 1 262 16
	movs	r3, #0
.L44:
	.loc 1 264 1
	mov	r0, r3
	adds	r7, r7, #20
	.cfi_def_cfa_offset 4
	mov	sp, r7
	.cfi_def_cfa_register 13
	@ sp needed
	pop	{r7}
	.cfi_restore 7
	.cfi_def_cfa_offset 0
	bx	lr
	.cfi_endproc
.LFE11:
	.size	MCAL_GPIO_LockPin, .-MCAL_GPIO_LockPin
.Letext0:
	.file 2 "/opt/st/stm32cubeclt_1.16.0/GNU-tools-for-STM32/arm-none-eabi/include/machine/_default_types.h"
	.file 3 "/opt/st/stm32cubeclt_1.16.0/GNU-tools-for-STM32/arm-none-eabi/include/sys/_stdint.h"
	.file 4 "drivers/Inc/Platform_Types.h"
	.file 5 "drivers/Inc/stm32f401xx.h"
	.file 6 "drivers/Inc/stm32f401xx_gpio_driver.h"
	.file 7 "drivers/Inc/stm32f401xx_rcc_driver.h"