	.cpu cortex-m4
	.arch armv7e-m
	.fpu softvfp
	.eabi_attribute 20, 1
	.eabi_attribute 21, 1
	.eabi_attribute 23, 3
	.eabi_attribute 24, 1
	.eabi_attribute 25, 1
	.eabi_attribute 26, 1
	.eabi_attribute 30, 6
	.eabi_attribute 34, 1
	.eabi_attribute 18, 4
	.file	"stm32f401xx_nvic_driver.c"
	.text
.Ltext0:
	.cfi_sections	.debug_frame
	.file 1 "drivers/Src/stm32f401xx_nvic_driver.c"
	.align	1
	.global	MCAL_NVIC_SetPriorityGrouping
	.syntax unified
	.thumb
	.thumb_func
	.type	MCAL_NVIC_SetPriorityGrouping, %function
MCAL_NVIC_SetPriorityGrouping:
.LFB3:
	.loc 1 24 61
	.cfi_startproc
	@ args = 0, pretend = 0, frame = 16
	@ frame_needed = 1, uses_anonymous_args = 0
	@ link register save eliminated.
	push	{r7}
	.cfi_def_cfa_offset 4
	.cfi_offset 7, -4
	sub	sp, sp, #20
	.cfi_def_cfa_offset 24
	add	r7, sp, #0
	.cfi_def_cfa_register 7
	str	r0, [r7, #4]
	.loc 1 28 23
	ldr	r3, [r7, #4]
	and	r3, r3, #1792
	str	r3, [r7, #4]
	.loc 1 31 20
	ldr	r3, .L2
	.loc 1 31 15
	ldr	r3, [r3, #12]
	str	r3, [r7, #12]
	.loc 1 34 15
	ldr	r3, [r7, #12]
	eor	r3, r3, #-16777216
	eor	r3, r3, #16711680
	str	r3, [r7, #12]
	.loc 1 37 15
	ldr	r3, [r7, #12]
	bic	r3, r3, #1792
	str	r3, [r7, #12]
	.loc 1 40 15
	ldr	r2, [r7, #12]
	ldr	r3, [r7, #4]
	orrs	r3, r3, r2
	str	r3, [r7, #12]
	.loc 1 43 8
	ldr	r2, .L2
	.loc 1 43 16
	ldr	r3, [r7, #12]
	str	r3, [r2, #12]
	.loc 1 44 1
	nop
	adds	r7, r7, #20
	.cfi_def_cfa_offset 4
	mov	sp, r7
	.cfi_def_cfa_register 13
	@ sp needed
	pop	{r7}
	.cfi_restore 7
	.cfi_def_cfa_offset 0
	bx	lr
.L3:
	.align	2
.L2:
	.word	-536810240
	.cfi_endproc
.LFE3:
	.size	MCAL_NVIC_SetPriorityGrouping, .-MCAL_NVIC_SetPriorityGrouping
	.align	1
	.global	MCAL_NVIC_GetPriorityGrouping
	.syntax unified
	.thumb
	.thumb_func
	.type	MCAL_NVIC_GetPriorityGrouping, %function
MCAL_NVIC_GetPriorityGrouping:
.LFB4:
	.loc 1 51 43
	.cfi_startproc
	@ args = 0, pretend = 0, frame = 0
	@ frame_needed = 1, uses_anonymous_args = 0
	@ link register save eliminated.
	push	{r7}
	.cfi_def_cfa_offset 4
	.cfi_offset 7, -4
	add	r7, sp, #0
	.cfi_def_cfa_register 7
	.loc 1 52 17
	ldr	r3, .L6
	ldr	r3, [r3, #12]
	.loc 1 52 51
	lsrs	r3, r3, #8
	and	r3, r3, #7
	.loc 1 53 1
	mov	r0, r3
	mov	sp, r7
	.cfi_def_cfa_register 13
	@ sp needed
	pop	{r7}
	.cfi_restore 7
	.cfi_def_cfa_offset 0
	bx	lr
.L7:
	.align	2
.L6:
	.word	-536810240
	.cfi_endproc
.LFE4:
	.size	MCAL_NVIC_GetPriorityGrouping, .-MCAL_NVIC_GetPriorityGrouping
	.align	1
	.global	MCAL_NVIC_EnableIRQ
	.syntax unified
	.thumb
	.thumb_func
	.type	MCAL_NVIC_EnableIRQ, %function
MCAL_NVIC_EnableIRQ:
.LFB5:
	.loc 1 61 37
	.cfi_startproc
	@ args = 0, pretend = 0, frame = 16
	@ frame_needed = 1, uses_anonymous_args = 0
	@ link register save eliminated.
	push	{r7}
	.cfi_def_cfa_offset 4
	.cfi_offset 7, -4
	sub	sp, sp, #20
	.cfi_def_cfa_offset 24
	add	r7, sp, #0
	.cfi_def_cfa_register 7
	mov	r3, r0
	strb	r3, [r7, #7]
	.loc 1 63 11
	ldrb	r3, [r7, #7]	@ zero_extendqisi2
	lsrs	r3, r3, #5
	strb	r3, [r7, #15]
	.loc 1 66 11
	ldrb	r3, [r7, #7]
	and	r3, r3, #31
	strb	r3, [r7, #14]
	.loc 1 68 33
	ldrb	r2, [r7, #14]	@ zero_extendqisi2
	.loc 1 68 9
	ldr	r1, .L9
	.loc 1 68 15
	ldrb	r3, [r7, #15]	@ zero_extendqisi2
	.loc 1 68 33
	movs	r0, #1
	lsl	r2, r0, r2
	.loc 1 68 27
	str	r2, [r1, r3, lsl #2]
	.loc 1 69 1
	nop
	adds	r7, r7, #20
	.cfi_def_cfa_offset 4
	mov	sp, r7
	.cfi_def_cfa_register 13
	@ sp needed
	pop	{r7}
	.cfi_restore 7
	.cfi_def_cfa_offset 0
	bx	lr
.L10:
	.align	2
.L9:
	.word	-536813312
	.cfi_endproc
.LFE5:
	.size	MCAL_NVIC_EnableIRQ, .-MCAL_NVIC_EnableIRQ
	.align	1
	.global	MCAL_NVIC_DisableIRQ
	.syntax unified
	.thumb
	.thumb_func
	.type	MCAL_NVIC_DisableIRQ, %function
MCAL_NVIC_DisableIRQ:
.LFB6:
	.loc 1 77 38
	.cfi_startproc
	@ args = 0, pretend = 0, frame = 16
	@ frame_needed = 1, uses_anonymous_args = 0
	@ link register save eliminated.
	push	{r7}
	.cfi_def_cfa_offset 4
	.cfi_offset 7, -4
	sub	sp, sp, #20
	.cfi_def_cfa_offset 24
	add	r7, sp, #0
	.cfi_def_cfa_register 7
	mov	r3, r0
	strb	r3, [r7, #7]
	.loc 1 79 11
	ldrb	r3, [r7, #7]	@ zero_extendqisi2
	lsrs	r3, r3, #5
	strb	r3, [r7, #15]
	.loc 1 82 11
	ldrb	r3, [r7, #7]
	and	r3, r3, #31
	strb	r3, [r7, #14]
	.loc 1 84 33
	ldrb	r2, [r7, #14]	@ zero_extendqisi2
	.loc 1 84 9
	ldr	r1, .L12
	.loc 1 84 15
	ldrb	r3, [r7, #15]	@ zero_extendqisi2
	.loc 1 84 33
	movs	r0, #1
	lsl	r2, r0, r2
	.loc 1 84 27
	adds	r3, r3, #32
	str	r2, [r1, r3, lsl #2]
	.loc 1 85 1
	nop
	adds	r7, r7, #20
	.cfi_def_cfa_offset 4
	mov	sp, r7
	.cfi_def_cfa_register 13
	@ sp needed
	pop	{r7}
	.cfi_restore 7
	.cfi_def_cfa_offset 0
	bx	lr
.L13:
	.align	2
.L12:
	.word	-536813312
	.cfi_endproc
.LFE6:
	.size	MCAL_NVIC_DisableIRQ, .-MCAL_NVIC_DisableIRQ
	.align	1
	.global	MCAL_NVIC_GetPendingIRQ
	.syntax unified
	.thumb
	.thumb_func
	.type	MCAL_NVIC_GetPendingIRQ, %function
MCAL_NVIC_GetPendingIRQ:
.LFB7:
	.loc 1 93 42
	.cfi_startproc
	@ args = 0, pretend = 0, frame = 16
	@ frame_needed = 1, uses_anonymous_args = 0
	@ link register save eliminated.
	push	{r7}
	.cfi_def_cfa_offset 4
	.cfi_offset 7, -4
	sub	sp, sp, #20
	.cfi_def_cfa_offset 24
	add	r7, sp, #0
	.cfi_def_cfa_register 7
	mov	r3, r0
	strb	r3, [r7, #7]
	.loc 1 97 11
	ldrb	r3, [r7, #7]	@ zero_extendqisi2
	lsrs	r3, r3, #5
	strb	r3, [r7, #15]
	.loc 1 100 11
	ldrb	r3, [r7, #7]
	and	r3, r3, #31
	strb	r3, [r7, #14]
	.loc 1 102 21
	ldr	r2, .L16
	.loc 1 102 27
	ldrb	r3, [r7, #15]	@ zero_extendqisi2
	adds	r3, r3, #64
	ldr	r2, [r2, r3, lsl #2]
	.loc 1 102 39
	ldrb	r3, [r7, #14]	@ zero_extendqisi2
	lsr	r3, r2, r3
	.loc 1 102 53
	uxtb	r3, r3
	.loc 1 102 13
	and	r3, r3, #1
	strb	r3, [r7, #13]
	.loc 1 103 12
	ldrb	r3, [r7, #13]	@ zero_extendqisi2
	.loc 1 104 1
	mov	r0, r3
	adds	r7, r7, #20
	.cfi_def_cfa_offset 4
	mov	sp, r7
	.cfi_def_cfa_register 13
	@ sp needed
	pop	{r7}
	.cfi_restore 7
	.cfi_def_cfa_offset 0
	bx	lr
.L17:
	.align	2
.L16:
	.word	-536813312
	.cfi_endproc
.LFE7:
	.size	MCAL_NVIC_GetPendingIRQ, .-MCAL_NVIC_GetPendingIRQ
	.align	1
	.global	MCAL_NVIC_SetPendingIRQ
	.syntax unified
	.thumb
	.thumb_func
	.type	MCAL_NVIC_SetPendingIRQ, %function
MCAL_NVIC_SetPendingIRQ:
.LFB8:
	.loc 1 112 41
	.cfi_startproc
	@ args = 0, pretend = 0, frame = 16
	@ frame_needed = 1, uses_anonymous_args = 0
	@ link register save eliminated.
	push	{r7}
	.cfi_def_cfa_offset 4
	.cfi_offset 7, -4
	sub	sp, sp, #20
	.cfi_def_cfa_offset 24
	add	r7, sp, #0
	.cfi_def_cfa_register 7
	mov	r3, r0
	strb	r3, [r7, #7]
	.loc 1 114 11
	ldrb	r3, [r7, #7]	@ zero_extendqisi2
	lsrs	r3, r3, #5
	strb	r3, [r7, #15]
	.loc 1 117 11
	ldrb	r3, [r7, #7]
	and	r3, r3, #31
	strb	r3, [r7, #14]
	.loc 1 119 9
	ldr	r2, .L19
	.loc 1 119 15
	ldrb	r3, [r7, #15]	@ zero_extendqisi2
	adds	r3, r3, #64
	ldr	r1, [r2, r3, lsl #2]
	.loc 1 119 35
	ldrb	r3, [r7, #14]	@ zero_extendqisi2
	movs	r2, #1
	lsls	r2, r2, r3
	.loc 1 119 9
	ldr	r0, .L19
	.loc 1 119 15
	ldrb	r3, [r7, #15]	@ zero_extendqisi2
	.loc 1 119 27
	orrs	r2, r2, r1
	adds	r3, r3, #64
	str	r2, [r0, r3, lsl #2]
	.loc 1 120 1
	nop
	adds	r7, r7, #20
	.cfi_def_cfa_offset 4
	mov	sp, r7
	.cfi_def_cfa_register 13
	@ sp needed
	pop	{r7}
	.cfi_restore 7
	.cfi_def_cfa_offset 0
	bx	lr
.L20:
	.align	2
.L19:
	.word	-536813312
	.cfi_endproc
.LFE8:
	.size	MCAL_NVIC_SetPendingIRQ, .-MCAL_NVIC_SetPendingIRQ
	.align	1
	.global	MCAL_NVIC_ClearPendingIRQ
	.syntax unified
	.thumb
	.thumb_func
	.type	MCAL_NVIC_ClearPendingIRQ, %function
MCAL_NVIC_ClearPendingIRQ:
.LFB9:
	.loc 1 128 43
	.cfi_startproc
	@ args = 0, pretend = 0, frame = 16
	@ frame_needed = 1, uses_anonymous_args = 0
	@ link register save eliminated.
	push	{r7}
	.cfi_def_cfa_offset 4
	.cfi_offset 7, -4
	sub	sp, sp, #20
	.cfi_def_cfa_offset 24
	add	r7, sp, #0
	.cfi_def_cfa_register 7
	mov	r3, r0
	strb	r3, [r7, #7]
	.loc 1 130 11
	ldrb	r3, [r7, #7]	@ zero_extendqisi2
	lsrs	r3, r3, #5
	strb	r3, [r7, #15]
	.loc 1 133 11
	ldrb	r3, [r7, #7]
	and	r3, r3, #31
	strb	r3, [r7, #14]
	.loc 1 135 9
	ldr	r2, .L22
	.loc 1 135 15
	ldrb	r3, [r7, #15]	@ zero_extendqisi2
	adds	r3, r3, #96
	ldr	r1, [r2, r3, lsl #2]
	.loc 1 135 34
	ldrb	r3, [r7, #14]	@ zero_extendqisi2
	movs	r2, #1
	lsls	r2, r2, r3
	.loc 1 135 9
	ldr	r0, .L22
	.loc 1 135 15
	ldrb	r3, [r7, #15]	@ zero_extendqisi2
	.loc 1 135 27
	orrs	r2, r2, r1
	adds	r3, r3, #96
	str	r2, [r0, r3, lsl #2]
	.loc 1 136 1
	nop
	adds	r7, r7, #20
	.cfi_def_cfa_offset 4
	mov	sp, r7
	.cfi_def_cfa_register 13
	@ sp needed
	pop	{r7}
	.cfi_restore 7
	.cfi_def_cfa_offset 0
	bx	lr
.L23:
	.align	2
.L22:
	.word	-536813312
	.cfi_endproc
.LFE9:
	.size	MCAL_NVIC_ClearPendingIRQ, .-MCAL_NVIC_ClearPendingIRQ
	.align	1
	.global	MCAL_NVIC_GetActive
	.syntax unified
	.thumb
	.thumb_func
	.type	MCAL_NVIC_GetActive, %function
MCAL_NVIC_GetActive:
.LFB10:
	.loc 1 144 38
	.cfi_startproc
	@ args = 0, pretend = 0, frame = 16
	@ frame_needed = 1, uses_anonymous_args = 0
	@ link register save eliminated.
	push	{r7}
	.cfi_def_cfa_offset 4
	.cfi_offset 7, -4
	sub	sp, sp, #20
	.cfi_def_cfa_offset 24
	add	r7, sp, #0
	.cfi_def_cfa_register 7
	mov	r3, r0
	strb	r3, [r7, #7]
	.loc 1 148 11
	ldrb	r3, [r7, #7]	@ zero_extendqisi2
	lsrs	r3, r3, #5
	strb	r3, [r7, #14]
	.loc 1 151 11
	ldrb	r3, [r7, #7]
	and	r3, r3, #31
	strb	r3, [r7, #13]
	.loc 1 153 13
	ldr	r2, .L28
	.loc 1 153 19
	ldrb	r3, [r7, #14]	@ zero_extendqisi2
	adds	r3, r3, #128
	ldr	r2, [r2, r3, lsl #2]
	.loc 1 153 9
	ldrb	r3, [r7, #13]	@ zero_extendqisi2
	lsr	r3, r2, r3
	and	r3, r3, #1
	.loc 1 153 8
	cmp	r3, #0
	beq	.L25
	.loc 1 154 17
	movs	r3, #1
	strb	r3, [r7, #15]
	b	.L26
.L25:
	.loc 1 156 17
	movs	r3, #0
	strb	r3, [r7, #15]
.L26:
	.loc 1 159 12
	ldrb	r3, [r7, #15]	@ zero_extendqisi2
	.loc 1 160 1
	mov	r0, r3
	adds	r7, r7, #20
	.cfi_def_cfa_offset 4
	mov	sp, r7
	.cfi_def_cfa_register 13
	@ sp needed
	pop	{r7}
	.cfi_restore 7
	.cfi_def_cfa_offset 0
	bx	lr
.L29:
	.align	2
.L28:
	.word	-536813312
	.cfi_endproc
.LFE10:
	.size	MCAL_NVIC_GetActive, .-MCAL_NVIC_GetActive
	.align	1
	.global	MCAL_NVIC_SetPriority
	.syntax unified
	.thumb
	.thumb_func
	.type	MCAL_NVIC_SetPriority, %function
MCAL_NVIC_SetPriority:
.LFB11:
	.loc 1 169 55
	.cfi_startproc
	@ args = 0, pretend = 0, frame = 16
	@ frame_needed = 1, uses_anonymous_args = 0
	@ link register save eliminated.
	push	{r7}
	.cfi_def_cfa_offset 4
	.cfi_offset 7, -4
	sub	sp, sp, #20
	.cfi_def_cfa_offset 24
	add	r7, sp, #0
	.cfi_def_cfa_register 7
	mov	r3, r0
	mov	r2, r1
	strb	r3, [r7, #7]
	mov	r3, r2
	strb	r3, [r7, #6]
	.loc 1 171 11
	ldrb	r3, [r7, #7]	@ zero_extendqisi2
	lsrs	r3, r3, #5
	strb	r3, [r7, #15]
	.loc 1 174 11
	ldrb	r3, [r7, #7]
	and	r3, r3, #31
	strb	r3, [r7, #14]
	.loc 1 176 9
	ldr	r1, .L31
	.loc 1 176 17
	ldrb	r3, [r7, #15]	@ zero_extendqisi2
	lsls	r2, r3, #2
	.loc 1 176 29
	ldrb	r3, [r7, #14]	@ zero_extendqisi2
	add	r3, r3, r2
	.loc 1 176 43
	add	r3, r3, r1
	ldrb	r2, [r7, #6]
	strb	r2, [r3, #768]
	.loc 1 177 1
	nop
	adds	r7, r7, #20
	.cfi_def_cfa_offset 4
	mov	sp, r7
	.cfi_def_cfa_register 13
	@ sp needed
	pop	{r7}
	.cfi_restore 7
	.cfi_def_cfa_offset 0
	bx	lr
.L32:
	.align	2
.L31:
	.word	-536813312
	.cfi_endproc
.LFE11:
	.size	MCAL_NVIC_SetPriority, .-MCAL_NVIC_SetPriority
	.align	1
	.global	MCAL_NVIC_GetPriority
	.syntax unified
	.thumb
	.thumb_func
	.type	MCAL_NVIC_GetPriority, %function
MCAL_NVIC_GetPriority:
.LFB12:
	.loc 1 185 40
	.cfi_startproc
	@ args = 0, pretend = 0, frame = 16
	@ frame_needed = 1, uses_anonymous_args = 0
	@ link register save eliminated.
	push	{r7}
	.cfi_def_cfa_offset 4
	.cfi_offset 7, -4
	sub	sp, sp, #20
	.cfi_def_cfa_offset 24
	add	r7, sp, #0
	.cfi_def_cfa_register 7
	mov	r3, r0
	strb	r3, [r7, #7]
	.loc 1 187 11
	ldrb	r3, [r7, #7]	@ zero_extendqisi2
	lsrs	r3, r3, #5
	strb	r3, [r7, #15]
	.loc 1 190 11
	ldrb	r3, [r7, #7]
	and	r3, r3, #31
	strb	r3, [r7, #14]
	.loc 1 192 16
	ldr	r1, .L35
	.loc 1 192 24
	ldrb	r3, [r7, #15]	@ zero_extendqisi2
	lsls	r2, r3, #2
	.loc 1 192 36
	ldrb	r3, [r7, #14]	@ zero_extendqisi2
	add	r3, r3, r2
	.loc 1 192 20
	add	r3, r3, r1
	ldrb	r3, [r3, #768]
	uxtb	r3, r3
	.loc 1 193 1
	mov	r0, r3
	adds	r7, r7, #20
	.cfi_def_cfa_offset 4
	mov	sp, r7
	.cfi_def_cfa_register 13
	@ sp needed
	pop	{r7}
	.cfi_restore 7
	.cfi_def_cfa_offset 0
	bx	lr
.L36:
	.align	2
.L35:
	.word	-536813312
	.cfi_endproc
.LFE12:
	.size	MCAL_NVIC_GetPriority, .-MCAL_NVIC_GetPriority
	.align	1
	.global	MCAL_NVIC_SystemReset
	.syntax unified
	.thumb
	.thumb_func
	.type	MCAL_NVIC_SystemReset, %function
MCAL_NVIC_SystemReset:
.LFB13:
	.loc 1 201 33
	.cfi_startproc
	@ args = 0, pretend = 0, frame = 0
	@ frame_needed = 1, uses_anonymous_args = 0
	@ link register save eliminated.
	push	{r7}
	.cfi_def_cfa_offset 4
	.cfi_offset 7, -4
	add	r7, sp, #0
	.cfi_def_cfa_register 7
	.loc 1 202 36
	ldr	r3, .L39
	ldr	r3, [r3, #12]
	.loc 1 202 44
	and	r2, r3, #1792
	.loc 1 202 8
	ldr	r1, .L39
	.loc 1 202 70
	ldr	r3, .L39+4
	orrs	r3, r3, r2
	.loc 1 202 16
	str	r3, [r1, #12]
.L38:
	.loc 1 205 10 discriminator 1
	nop
	b	.L38
.L40:
	.align	2
.L39:
	.word	-536810240
	.word	100270084
	.cfi_endproc
.LFE13:
	.size	MCAL_NVIC_SystemReset, .-MCAL_NVIC_SystemReset
.Letext0:
	.file 2 "drivers/Inc/Platform_Types.h"
	.file 3 "drivers/Inc/stm32f401xx.h"