	.cpu cortex-m4
	.arch armv7e-m
	.fpu softvfp
	.eabi_attribute 20, 1
	.eabi_attribute 21, 1
	.eabi_attribute 23, 3
	.eabi_attribute 24, 1
	.eabi_attribute 25, 1
	.eabi_attribute 26, 1
	.eabi_attribute 30, 6
	.eabi_attribute 34, 1
	.eabi_attribute 18, 4
	.file	"stm32f401xx_i2c_driver.c"
	.text
.Ltext0:
	.cfi_sections	.debug_frame
	.file 1 "drivers/Src/stm32f401xx_i2c_driver.c"
	.global	Global_I2C_Config
	.bss
	.align	2
	.type	Global_I2C_Config, %object
	.size	Global_I2C_Config, 64
Global_I2C_Config:
	.space	64
	.text
	.align	1
	.global	MCAL_I2C_Init
	.syntax unified
	.thumb
	.thumb_func
	.type	MCAL_I2C_Init, %function
MCAL_I2C_Init:
.LFB3:
	.loc 1 51 1
	.cfi_startproc
	@ args = 0, pretend = 0, frame = 24
	@ frame_needed = 1, uses_anonymous_args = 0
	push	{r4, r5, r7, lr}
	.cfi_def_cfa_offset 16
	.cfi_offset 4, -16
	.cfi_offset 5, -12
	.cfi_offset 7, -8
	.cfi_offset 14, -4
	sub	sp, sp, #24
	.cfi_def_cfa_offset 40
	add	r7, sp, #0
	.cfi_def_cfa_register 7
	str	r0, [r7, #4]
	str	r1, [r7]
	.loc 1 52 14
	movs	r3, #0
	strh	r3, [r7, #22]	@ movhi
	.loc 1 52 27
	movs	r3, #0
	strh	r3, [r7, #20]	@ movhi
	.loc 1 53 14
	ldr	r3, .L11
	str	r3, [r7, #16]
	.loc 1 54 14
	movs	r3, #0
	strh	r3, [r7, #14]	@ movhi
	.loc 1 56 8
	ldr	r3, [r7, #4]
	ldr	r2, .L11+4
	cmp	r3, r2
	bne	.L2
	.loc 1 58 39
	ldr	r2, .L11+8
	ldr	r3, [r7]
	mov	r4, r2
	mov	r5, r3
	ldmia	r5!, {r0, r1, r2, r3}
	stmia	r4!, {r0, r1, r2, r3}
	ldm	r5, {r0, r1, r2, r3}
	stm	r4, {r0, r1, r2, r3}
	.loc 1 59 9
	movs	r0, #13
	bl	MCAL_RCC_Enable_Peripheral
	b	.L3
.L2:
	.loc 1 63 39
	ldr	r3, .L11+8
	ldr	r2, [r7]
	add	r4, r3, #32
	mov	r5, r2
	ldmia	r5!, {r0, r1, r2, r3}
	stmia	r4!, {r0, r1, r2, r3}
	ldm	r5, {r0, r1, r2, r3}
	stm	r4, {r0, r1, r2, r3}
	.loc 1 64 9
	movs	r0, #14
	bl	MCAL_RCC_Enable_Peripheral
.L3:
	.loc 1 67 24
	ldr	r3, [r7]
	ldr	r3, [r3, #8]
	.loc 1 67 8
	cmp	r3, #0
	bne	.L4
	.loc 1 70 23
	ldr	r3, [r7, #4]
	ldr	r3, [r3, #4]
	.loc 1 70 17
	strh	r3, [r7, #22]	@ movhi
	.loc 1 71 17
	ldrh	r3, [r7, #22]	@ movhi
	bic	r3, r3, #63
	strh	r3, [r7, #22]	@ movhi
	.loc 1 72 16
	bl	MCAL_RCC_GetPCLK1Freq
	str	r0, [r7, #16]
	.loc 1 73 37
	ldr	r3, [r7, #16]
	ldr	r2, .L11+12
	umull	r2, r3, r2, r3
	lsrs	r3, r3, #18
	.loc 1 73 19
	strh	r3, [r7, #20]	@ movhi
	.loc 1 74 17
	ldrh	r2, [r7, #22]	@ movhi
	ldrh	r3, [r7, #20]	@ movhi
	orrs	r3, r3, r2
	strh	r3, [r7, #22]	@ movhi
	.loc 1 75 19
	ldrh	r2, [r7, #22]
	ldr	r3, [r7, #4]
	str	r2, [r3, #4]
	.loc 1 78 13
	ldr	r3, [r7, #4]
	ldr	r3, [r3]
	.loc 1 78 19
	bic	r2, r3, #1
	ldr	r3, [r7, #4]
	str	r2, [r3]
	.loc 1 79 17
	movs	r3, #0
	strh	r3, [r7, #22]	@ movhi
	.loc 1 81 29
	ldr	r3, [r7]
	ldr	r3, [r3]
	.loc 1 81 12
	cmp	r3, #327680
	beq	.L5
	.loc 1 81 79 discriminator 1
	ldr	r3, [r7]
	ldr	r3, [r3]
	.loc 1 81 60 discriminator 1
	ldr	r2, .L11+16
	cmp	r3, r2
	bne	.L6
.L5:
	.loc 1 83 56
	ldr	r3, [r7]
	ldr	r3, [r3]
	.loc 1 83 68
	lsls	r3, r3, #1
	.loc 1 83 38
	ldr	r2, [r7, #16]
	udiv	r3, r2, r3
	.loc 1 83 20
	strh	r3, [r7, #14]	@ movhi
	.loc 1 84 27
	ldr	r3, [r7, #4]
	ldr	r3, [r3, #28]
	.loc 1 84 21
	strh	r3, [r7, #22]	@ movhi
	.loc 1 85 21
	ldrh	r2, [r7, #22]	@ movhi
	ldrh	r3, [r7, #14]	@ movhi
	orrs	r3, r3, r2
	strh	r3, [r7, #22]	@ movhi
	.loc 1 86 23
	ldrh	r2, [r7, #22]
	ldr	r3, [r7, #4]
	str	r2, [r3, #28]
	.loc 1 89 37
	ldrh	r3, [r7, #20]
	adds	r3, r3, #1
	mov	r2, r3
	.loc 1 89 25
	ldr	r3, [r7, #4]
	str	r2, [r3, #32]
.L6:
	.loc 1 97 23
	ldr	r3, [r7, #4]
	ldr	r3, [r3]
	.loc 1 97 17
	strh	r3, [r7, #22]	@ movhi
	.loc 1 98 47
	ldr	r3, [r7]
	ldr	r3, [r3, #20]
	.loc 1 98 66
	uxth	r2, r3
	.loc 1 98 84
	ldr	r3, [r7]
	ldr	r3, [r3, #4]
	.loc 1 98 66
	uxth	r3, r3
	orrs	r3, r3, r2
	uxth	r2, r3
	.loc 1 98 121
	ldr	r3, [r7]
	ldr	r3, [r3, #8]
	.loc 1 98 20
	uxth	r3, r3
	orrs	r3, r3, r2
	uxth	r2, r3
	.loc 1 98 17
	ldrh	r3, [r7, #22]	@ movhi
	orrs	r3, r3, r2
	strh	r3, [r7, #22]	@ movhi
	.loc 1 99 19
	ldrh	r2, [r7, #22]
	ldr	r3, [r7, #4]
	str	r2, [r3]
	.loc 1 102 17
	movs	r3, #0
	strh	r3, [r7, #22]	@ movhi
	.loc 1 103 47
	ldr	r3, [r7]
	ldrh	r3, [r3, #12]
	.loc 1 103 12
	cmp	r3, #1
	bne	.L7
	.loc 1 105 21
	ldrh	r3, [r7, #22]	@ movhi
	orr	r3, r3, #1
	strh	r3, [r7, #22]	@ movhi
	.loc 1 106 59
	ldr	r3, [r7]
	ldrh	r3, [r3, #16]
	.loc 1 106 77
	lsls	r3, r3, #1
	.loc 1 106 21
	sxth	r2, r3
	ldrsh	r3, [r7, #22]
	orrs	r3, r3, r2
	sxth	r3, r3
	strh	r3, [r7, #22]	@ movhi
	.loc 1 107 24
	ldrh	r2, [r7, #22]
	ldr	r3, [r7, #4]
	str	r2, [r3, #12]
.L7:
	.loc 1 109 17
	movs	r3, #0
	strh	r3, [r7, #22]	@ movhi
	.loc 1 110 55
	ldr	r3, [r7]
	ldrh	r3, [r3, #14]
	.loc 1 110 71
	lsls	r3, r3, #1
	.loc 1 110 17
	sxth	r2, r3
	ldrsh	r3, [r7, #22]
	orrs	r3, r3, r2
	sxth	r3, r3
	strh	r3, [r7, #22]	@ movhi
	.loc 1 111 55
	ldr	r3, [r7]
	ldrh	r3, [r3, #18]
	.loc 1 111 76
	lsls	r3, r3, #1
	.loc 1 111 17
	sxth	r2, r3
	ldrsh	r3, [r7, #22]
	orrs	r3, r3, r2
	sxth	r3, r3
	strh	r3, [r7, #22]	@ movhi
	.loc 1 114 28
	ldr	r3, [r7]
	ldr	r3, [r3, #28]
	.loc 1 114 12
	cmp	r3, #0
	beq	.L8
	.loc 1 116 17
	ldr	r3, [r7, #4]
	ldr	r3, [r3, #4]
	.loc 1 116 23
	orr	r2, r3, #1024
	ldr	r3, [r7, #4]
	str	r2, [r3, #4]
	.loc 1 117 17
	ldr	r3, [r7, #4]
	ldr	r3, [r3, #4]
	.loc 1 117 23
	orr	r2, r3, #256
	ldr	r3, [r7, #4]
	str	r2, [r3, #4]
	.loc 1 118 17
	ldr	r3, [r7, #4]
	ldr	r3, [r3, #4]
	.loc 1 118 23
	orr	r2, r3, #512
	ldr	r3, [r7, #4]
	str	r2, [r3, #4]
.L8:
	.loc 1 120 12
	ldr	r3, [r7, #4]
	ldr	r2, .L11+4
	cmp	r3, r2
	bne	.L9
	.loc 1 122 13
	ldr	r3, .L11+20
	ldr	r3, [r3]
	ldr	r2, .L11+20
	orr	r3, r3, #-2147483648
	str	r3, [r2]
	.loc 1 123 13
	ldr	r3, .L11+24
	ldr	r3, [r3]
	ldr	r2, .L11+24
	orr	r3, r3, #1
	str	r3, [r2]
	b	.L10
.L9:
	.loc 1 127 13
	ldr	r3, .L11+24
	ldr	r3, [r3]
	ldr	r2, .L11+24
	orr	r3, r3, #2
	str	r3, [r2]
	.loc 1 128 13
	ldr	r3, .L11+24
	ldr	r3, [r3]
	ldr	r2, .L11+24
	orr	r3, r3, #4
	str	r3, [r2]
.L10:
	.loc 1 130 19
	ldr	r3, [r7, #4]
	movs	r2, #0
	str	r2, [r3, #20]
	.loc 1 131 19
	ldr	r3, [r7, #4]
	movs	r2, #0
	str	r2, [r3, #24]
.L4:
	.loc 1 139 9
	ldr	r3, [r7, #4]
	ldr	r3, [r3]
	.loc 1 139 15
	orr	r2, r3, #1
	ldr	r3, [r7, #4]
	str	r2, [r3]
	.loc 1 140 1
	nop
	adds	r7, r7, #24
	.cfi_def_cfa_offset 16
	mov	sp, r7
	.cfi_def_cfa_register 13
	@ sp needed
	pop	{r4, r5, r7, pc}
.L12:
	.align	2
.L11:
	.word	8000000
	.word	1073763328
	.word	Global_I2C_Config
	.word	1125899907
	.word	100000
	.word	-536813312
	.word	-536813308
	.cfi_endproc
.LFE3:
	.size	MCAL_I2C_Init, .-MCAL_I2C_Init
	.align	1
	.global	MCAL_I2C_Deinit
	.syntax unified
	.thumb
	.thumb_func
	.type	MCAL_I2C_Deinit, %function
MCAL_I2C_Deinit:
.LFB4:
	.loc 1 149 1
	.cfi_startproc
	@ args = 0, pretend = 0, frame = 8
	@ frame_needed = 1, uses_anonymous_args = 0
	push	{r7, lr}
	.cfi_def_cfa_offset 8
	.cfi_offset 7, -8
	.cfi_offset 14, -4
	sub	sp, sp, #8
	.cfi_def_cfa_offset 16
	add	r7, sp, #0
	.cfi_def_cfa_register 7
	str	r0, [r7, #4]
	.loc 1 150 8
	ldr	r3, [r7, #4]
	ldr	r2, .L17
	cmp	r3, r2
	bne	.L14
	.loc 1 152 9
	ldr	r3, .L17+4
	ldr	r3, [r3]
	ldr	r2, .L17+4
	bic	r3, r3, #-2147483648
	str	r3, [r2]
	.loc 1 153 9
	ldr	r3, .L17+8
	ldr	r3, [r3]
	ldr	r2, .L17+8
	bic	r3, r3, #1
	str	r3, [r2]
	.loc 1 154 9
	movs	r0, #13
	bl	MCAL_RCC_Reset_Peripheral
	.loc 1 162 1
	b	.L16
.L14:
	.loc 1 158 9
	ldr	r3, .L17+8
	ldr	r3, [r3]
	ldr	r2, .L17+8
	bic	r3, r3, #2
	str	r3, [r2]
	.loc 1 159 9
	ldr	r3, .L17+8
	ldr	r3, [r3]
	ldr	r2, .L17+8
	bic	r3, r3, #4
	str	r3, [r2]
	.loc 1 160 9
	movs	r0, #14
	bl	MCAL_RCC_Reset_Peripheral
.L16:
	.loc 1 162 1
	nop
	adds	r7, r7, #8
	.cfi_def_cfa_offset 8
	mov	sp, r7
	.cfi_def_cfa_register 13
	@ sp needed
	pop	{r7, pc}
.L18:
	.align	2
.L17:
	.word	1073763328
	.word	-536813184
	.word	-536813180
	.cfi_endproc
.LFE4:
	.size	MCAL_I2C_Deinit, .-MCAL_I2C_Deinit
	.align	1
	.global	MCAL_I2C_Set_GPIO
	.syntax unified
	.thumb
	.thumb_func
	.type	MCAL_I2C_Set_GPIO, %function
MCAL_I2C_Set_GPIO:
.LFB5:
	.loc 1 173 1
	.cfi_startproc
	@ args = 0, pretend = 0, frame = 24
	@ frame_needed = 1, uses_anonymous_args = 0
	push	{r7, lr}
	.cfi_def_cfa_offset 8
	.cfi_offset 7, -8
	.cfi_offset 14, -4
	sub	sp, sp, #24
	.cfi_def_cfa_offset 32
	add	r7, sp, #0
	.cfi_def_cfa_register 7
	str	r0, [r7, #4]
	.loc 1 175 8
	ldr	r3, [r7, #4]
	ldr	r2, .L23
	cmp	r3, r2
	bne	.L20
	.loc 1 178 27
	movs	r3, #2
	strb	r3, [r7, #8]
	.loc 1 179 31
	movs	r3, #2
	strb	r3, [r7, #9]
	.loc 1 180 32
	movs	r3, #6
	strh	r3, [r7, #10]	@ movhi
	.loc 1 181 37
	movs	r3, #0
	str	r3, [r7, #12]
	.loc 1 182 32
	movs	r3, #1
	str	r3, [r7, #16]
	.loc 1 183 36
	movs	r3, #4
	str	r3, [r7, #20]
	.loc 1 184 9
	add	r3, r7, #8
	mov	r1, r3
	ldr	r0, .L23+4
	bl	MCAL_GPIO_Init
	.loc 1 186 32
	movs	r3, #7
	strh	r3, [r7, #10]	@ movhi
	.loc 1 187 9
	add	r3, r7, #8
	mov	r1, r3
	ldr	r0, .L23+4
	bl	MCAL_GPIO_Init
	.loc 1 203 1
	b	.L22
.L20:
	.loc 1 192 27
	movs	r3, #2
	strb	r3, [r7, #8]
	.loc 1 193 31
	movs	r3, #2
	strb	r3, [r7, #9]
	.loc 1 194 32
	movs	r3, #10
	strh	r3, [r7, #10]	@ movhi
	.loc 1 195 37
	movs	r3, #0
	str	r3, [r7, #12]
	.loc 1 196 32
	movs	r3, #1
	str	r3, [r7, #16]
	.loc 1 197 36
	movs	r3, #4
	str	r3, [r7, #20]
	.loc 1 198 9
	add	r3, r7, #8
	mov	r1, r3
	ldr	r0, .L23+4
	bl	MCAL_GPIO_Init
	.loc 1 200 32
	movs	r3, #3
	strh	r3, [r7, #10]	@ movhi
	.loc 1 201 9
	add	r3, r7, #8
	mov	r1, r3
	ldr	r0, .L23+4
	bl	MCAL_GPIO_Init
.L22:
	.loc 1 203 1
	nop
	adds	r7, r7, #24
	.cfi_def_cfa_offset 8
	mov	sp, r7
	.cfi_def_cfa_register 13
	@ sp needed
	pop	{r7, pc}
.L24:
	.align	2
.L23:
	.word	1073763328
	.word	1073873920
	.cfi_endproc
.LFE5:
	.size	MCAL_I2C_Set_GPIO, .-MCAL_I2C_Set_GPIO
	.align	1
	.global	MCAL_I2C_Master_Tx
	.syntax unified
	.thumb
	.thumb_func
	.type	MCAL_I2C_Master_Tx, %function
MCAL_I2C_Master_Tx:
.LFB6:
	.loc 1 219 1
	.cfi_startproc
	@ args = 8, pretend = 0, frame = 248
	@ frame_needed = 1, uses_anonymous_args = 0
	push	{r7, lr}
	.cfi_def_cfa_offset 8
	.cfi_offset 7, -8
	.cfi_offset 14, -4
	sub	sp, sp, #248
	.cfi_def_cfa_offset 256
	add	r7, sp, #0
	.cfi_def_cfa_register 7
	str	r0, [r7, #12]
	str	r2, [r7, #4]
	str	r3, [r7]
	mov	r3, r1	@ movhi
	strh	r3, [r7, #10]	@ movhi
	.loc 1 220 7
	movs	r3, #0
	str	r3, [r7, #20]
	.loc 1 223 2
	ldrb	r3, [r7, #260]	@ zero_extendqisi2
	mov	r2, r3
	movs	r1, #1
	ldr	r0, [r7, #12]
	bl	I2C_Generate_Start
	.loc 1 226 8
	nop
.L26:
	.loc 1 226 10 discriminator 1
	movs	r1, #1
	ldr	r0, [r7, #12]
	bl	I2C_Get_FlagStatus
	mov	r3, r0
	.loc 1 226 9 discriminator 1
	cmp	r3, #0
	beq	.L26
	.loc 1 229 2
	ldrh	r3, [r7, #10]
	movs	r2, #0
	mov	r1, r3
	ldr	r0, [r7, #12]
	bl	I2C_SendAddress
	.loc 1 232 8
	nop
.L27:
	.loc 1 232 10 discriminator 1
	movs	r1, #2
	ldr	r0, [r7, #12]
	bl	I2C_Get_FlagStatus
	mov	r3, r0
	.loc 1 232 9 discriminator 1
	cmp	r3, #0
	beq	.L27
	.loc 1 235 8
	nop
.L28:
	.loc 1 235 10 discriminator 1
	ldr	r1, .L162
	ldr	r0, [r7, #12]
	bl	I2C_Get_FlagStatus
	mov	r3, r0
	.loc 1 235 9 discriminator 1
	cmp	r3, #0
	beq	.L28
	.loc 1 244 20
	ldr	r3, [r7, #20]
	ldr	r2, [r7, #4]
	add	r3, r3, r2
	ldrb	r3, [r3]	@ zero_extendqisi2
	mov	r2, r3
	.loc 1 244 11
	ldr	r3, [r7, #12]
	str	r2, [r3, #16]
.LBB2:
	.loc 1 245 10
	movs	r3, #0
	str	r3, [r7, #244]
	.loc 1 245 2
	b	.L29
.L30:
	.loc 1 245 23 discriminator 3
	ldr	r3, [r7, #244]
	adds	r3, r3, #1
	str	r3, [r7, #244]
.L29:
	.loc 1 245 16 discriminator 1
	ldr	r3, [r7, #244]
	movw	r2, #4999
	cmp	r3, r2
	ble	.L30
.LBE2:
	.loc 1 246 7
	nop
.L31:
	.loc 1 246 9 discriminator 1
	movs	r1, #4
	ldr	r0, [r7, #12]
	bl	I2C_Get_FlagStatus
	mov	r3, r0
	.loc 1 246 8 discriminator 1
	cmp	r3, #0
	beq	.L31
.LBB3:
	.loc 1 247 10
	movs	r3, #0
	str	r3, [r7, #240]
	.loc 1 247 2
	b	.L32
.L33:
	.loc 1 247 23 discriminator 3
	ldr	r3, [r7, #240]
	adds	r3, r3, #1
	str	r3, [r7, #240]
.L32:
	.loc 1 247 16 discriminator 1
	ldr	r3, [r7, #240]
	movw	r2, #4999
	cmp	r3, r2
	ble	.L33
.LBE3:
.LBB4:
	.loc 1 248 10
	movs	r3, #0
	str	r3, [r7, #236]
	.loc 1 248 2
	b	.L34
.L35:
	.loc 1 248 23 discriminator 3
	ldr	r3, [r7, #236]
	adds	r3, r3, #1
	str	r3, [r7, #236]
.L34:
	.loc 1 248 16 discriminator 1
	ldr	r3, [r7, #236]
	movw	r2, #4999
	cmp	r3, r2
	ble	.L35
.LBE4:
	.loc 1 250 11
	ldr	r3, [r7, #20]
	adds	r3, r3, #1
	str	r3, [r7, #20]
	.loc 1 250 21
	ldr	r3, [r7, #20]
	.loc 1 250 20
	ldr	r2, [r7, #4]
	add	r3, r3, r2
	ldrb	r3, [r3]	@ zero_extendqisi2
	mov	r2, r3
	.loc 1 250 11
	ldr	r3, [r7, #12]
	str	r2, [r3, #16]
.LBB5:
	.loc 1 251 10
	movs	r3, #0
	str	r3, [r7, #232]
	.loc 1 251 2
	b	.L36
.L37:
	.loc 1 251 23 discriminator 3
	ldr	r3, [r7, #232]
	adds	r3, r3, #1
	str	r3, [r7, #232]
.L36:
	.loc 1 251 16 discriminator 1
	ldr	r3, [r7, #232]
	movw	r2, #4999
	cmp	r3, r2
	ble	.L37
.LBE5:
	.loc 1 252 7
	nop
.L38:
	.loc 1 252 9 discriminator 1
	movs	r1, #4
	ldr	r0, [r7, #12]
	bl	I2C_Get_FlagStatus
	mov	r3, r0
	.loc 1 252 8 discriminator 1
	cmp	r3, #0
	beq	.L38
.LBB6:
	.loc 1 253 10
	movs	r3, #0
	str	r3, [r7, #228]
	.loc 1 253 2
	b	.L39
.L40:
	.loc 1 253 23 discriminator 3
	ldr	r3, [r7, #228]
	adds	r3, r3, #1
	str	r3, [r7, #228]
.L39:
	.loc 1 253 16 discriminator 1
	ldr	r3, [r7, #228]
	movw	r2, #4999
	cmp	r3, r2
	ble	.L40
.LBE6:
.LBB7:
	.loc 1 254 10
	movs	r3, #0
	str	r3, [r7, #224]
	.loc 1 254 2
	b	.L41
.L42:
	.loc 1 254 23 discriminator 3
	ldr	r3, [r7, #224]
	adds	r3, r3, #1
	str	r3, [r7, #224]
.L41:
	.loc 1 254 16 discriminator 1
	ldr	r3, [r7, #224]
	movw	r2, #4999
	cmp	r3, r2
	ble	.L42
.LBE7:
	.loc 1 256 4
	ldr	r3, [r7]
	cmp	r3, #2
	bls	.L43
	.loc 1 259 14
	ldr	r3, [r7, #20]
	adds	r3, r3, #1
	str	r3, [r7, #20]
	.loc 1 259 24
	ldr	r3, [r7, #20]
	.loc 1 259 23
	ldr	r2, [r7, #4]
	add	r3, r3, r2
	ldrb	r3, [r3]	@ zero_extendqisi2
	mov	r2, r3
	.loc 1 259 14
	ldr	r3, [r7, #12]
	str	r2, [r3, #16]
.LBB8:
	.loc 1 260 13
	movs	r3, #0
	str	r3, [r7, #220]
	.loc 1 260 5
	b	.L44
.L45:
	.loc 1 260 26 discriminator 3
	ldr	r3, [r7, #220]
	adds	r3, r3, #1
	str	r3, [r7, #220]
.L44:
	.loc 1 260 19 discriminator 1
	ldr	r3, [r7, #220]
	movw	r2, #4999
	cmp	r3, r2
	ble	.L45
.LBE8:
	.loc 1 261 10
	nop
.L46:
	.loc 1 261 12 discriminator 1
	movs	r1, #4
	ldr	r0, [r7, #12]
	bl	I2C_Get_FlagStatus
	mov	r3, r0
	.loc 1 261 11 discriminator 1
	cmp	r3, #0
	beq	.L46
.LBB9:
	.loc 1 262 13
	movs	r3, #0
	str	r3, [r7, #216]
	.loc 1 262 5
	b	.L47
.L48:
	.loc 1 262 26 discriminator 3
	ldr	r3, [r7, #216]
	adds	r3, r3, #1
	str	r3, [r7, #216]
.L47:
	.loc 1 262 19 discriminator 1
	ldr	r3, [r7, #216]
	movw	r2, #4999
	cmp	r3, r2
	ble	.L48
.LBE9:
.LBB10:
	.loc 1 263 13
	movs	r3, #0
	str	r3, [r7, #212]
	.loc 1 263 5
	b	.L49
.L50:
	.loc 1 263 26 discriminator 3
	ldr	r3, [r7, #212]
	adds	r3, r3, #1
	str	r3, [r7, #212]
.L49:
	.loc 1 263 19 discriminator 1
	ldr	r3, [r7, #212]
	movw	r2, #4999
	cmp	r3, r2
	ble	.L50
.LBE10:
	.loc 1 265 14
	ldr	r3, [r7, #20]
	adds	r3, r3, #1
	str	r3, [r7, #20]
	.loc 1 265 24
	ldr	r3, [r7, #20]
	.loc 1 265 23
	ldr	r2, [r7, #4]
	add	r3, r3, r2
	ldrb	r3, [r3]	@ zero_extendqisi2
	mov	r2, r3
	.loc 1 265 14
	ldr	r3, [r7, #12]
	str	r2, [r3, #16]
.LBB11:
	.loc 1 266 13
	movs	r3, #0
	str	r3, [r7, #208]
	.loc 1 266 5
	b	.L51
.L52:
	.loc 1 266 26 discriminator 3
	ldr	r3, [r7, #208]
	adds	r3, r3, #1
	str	r3, [r7, #208]
.L51:
	.loc 1 266 19 discriminator 1
	ldr	r3, [r7, #208]
	movw	r2, #4999
	cmp	r3, r2
	ble	.L52
.LBE11:
	.loc 1 267 10
	nop
.L53:
	.loc 1 267 12 discriminator 1
	movs	r1, #4
	ldr	r0, [r7, #12]
	bl	I2C_Get_FlagStatus
	mov	r3, r0
	.loc 1 267 11 discriminator 1
	cmp	r3, #0
	beq	.L53
.LBB12:
	.loc 1 268 13
	movs	r3, #0
	str	r3, [r7, #204]
	.loc 1 268 5
	b	.L54
.L55:
	.loc 1 268 26 discriminator 3
	ldr	r3, [r7, #204]
	adds	r3, r3, #1
	str	r3, [r7, #204]
.L54:
	.loc 1 268 19 discriminator 1
	ldr	r3, [r7, #204]
	movw	r2, #4999
	cmp	r3, r2
	ble	.L55
.LBE12:
.LBB13:
	.loc 1 269 13
	movs	r3, #0
	str	r3, [r7, #200]
	.loc 1 269 5
	b	.L56
.L57:
	.loc 1 269 26 discriminator 3
	ldr	r3, [r7, #200]
	adds	r3, r3, #1
	str	r3, [r7, #200]
.L56:
	.loc 1 269 19 discriminator 1
	ldr	r3, [r7, #200]
	movw	r2, #4999
	cmp	r3, r2
	ble	.L57
.LBE13:
	.loc 1 271 14
	ldr	r3, [r7, #20]
	adds	r3, r3, #1
	str	r3, [r7, #20]
	.loc 1 271 24
	ldr	r3, [r7, #20]
	.loc 1 271 23
	ldr	r2, [r7, #4]
	add	r3, r3, r2
	ldrb	r3, [r3]	@ zero_extendqisi2
	mov	r2, r3
	.loc 1 271 14
	ldr	r3, [r7, #12]
	str	r2, [r3, #16]
.LBB14:
	.loc 1 272 13
	movs	r3, #0
	str	r3, [r7, #196]
	.loc 1 272 5
	b	.L58
.L59:
	.loc 1 272 26 discriminator 3
	ldr	r3, [r7, #196]
	adds	r3, r3, #1
	str	r3, [r7, #196]
.L58:
	.loc 1 272 19 discriminator 1
	ldr	r3, [r7, #196]
	movw	r2, #4999
	cmp	r3, r2
	ble	.L59
.LBE14:
	.loc 1 273 10
	nop
.L60:
	.loc 1 273 12 discriminator 1
	movs	r1, #4
	ldr	r0, [r7, #12]
	bl	I2C_Get_FlagStatus
	mov	r3, r0
	.loc 1 273 11 discriminator 1
	cmp	r3, #0
	beq	.L60
.LBB15:
	.loc 1 274 13
	movs	r3, #0
	str	r3, [r7, #192]
	.loc 1 274 5
	b	.L61
.L62:
	.loc 1 274 26 discriminator 3
	ldr	r3, [r7, #192]
	adds	r3, r3, #1
	str	r3, [r7, #192]
.L61:
	.loc 1 274 19 discriminator 1
	ldr	r3, [r7, #192]
	movw	r2, #4999
	cmp	r3, r2
	ble	.L62
.LBE15:
.LBB16:
	.loc 1 275 13
	movs	r3, #0
	str	r3, [r7, #188]
	.loc 1 275 5
	b	.L63
.L64:
	.loc 1 275 26 discriminator 3
	ldr	r3, [r7, #188]
	adds	r3, r3, #1
	str	r3, [r7, #188]
.L63:
	.loc 1 275 19 discriminator 1
	ldr	r3, [r7, #188]
	movw	r2, #4999
	cmp	r3, r2
	ble	.L64
.LBE16:
	.loc 1 277 14
	ldr	r3, [r7, #20]
	adds	r3, r3, #1
	str	r3, [r7, #20]
	.loc 1 277 24
	ldr	r3, [r7, #20]
	.loc 1 277 23
	ldr	r2, [r7, #4]
	add	r3, r3, r2
	ldrb	r3, [r3]	@ zero_extendqisi2
	mov	r2, r3
	.loc 1 277 14
	ldr	r3, [r7, #12]
	str	r2, [r3, #16]
.LBB17:
	.loc 1 278 13
	movs	r3, #0
	str	r3, [r7, #184]
	.loc 1 278 5
	b	.L65
.L66:
	.loc 1 278 26 discriminator 3
	ldr	r3, [r7, #184]
	adds	r3, r3, #1
	str	r3, [r7, #184]
.L65:
	.loc 1 278 19 discriminator 1
	ldr	r3, [r7, #184]
	movw	r2, #4999
	cmp	r3, r2
	ble	.L66
.LBE17:
	.loc 1 279 10
	nop
.L67:
	.loc 1 279 12 discriminator 1
	movs	r1, #4
	ldr	r0, [r7, #12]
	bl	I2C_Get_FlagStatus
	mov	r3, r0
	.loc 1 279 11 discriminator 1
	cmp	r3, #0
	beq	.L67
.LBB18:
	.loc 1 280 13
	movs	r3, #0
	str	r3, [r7, #180]
	.loc 1 280 5
	b	.L68
.L69:
	.loc 1 280 26 discriminator 3
	ldr	r3, [r7, #180]
	adds	r3, r3, #1
	str	r3, [r7, #180]
.L68:
	.loc 1 280 19 discriminator 1
	ldr	r3, [r7, #180]
	movw	r2, #4999
	cmp	r3, r2
	ble	.L69
.LBE18:
.LBB19:
	.loc 1 281 13
	movs	r3, #0
	str	r3, [r7, #176]
	.loc 1 281 5
	b	.L70
.L163:
	.align	2
.L162:
	.word	458880
.L71:
	.loc 1 281 26 discriminator 3
	ldr	r3, [r7, #176]
	adds	r3, r3, #1
	str	r3, [r7, #176]
.L70:
	.loc 1 281 19 discriminator 1
	ldr	r3, [r7, #176]
	movw	r2, #4999
	cmp	r3, r2
	ble	.L71
.LBE19:
	.loc 1 283 14
	ldr	r3, [r7, #20]
	adds	r3, r3, #1
	str	r3, [r7, #20]
	.loc 1 283 24
	ldr	r3, [r7, #20]
	.loc 1 283 23
	ldr	r2, [r7, #4]
	add	r3, r3, r2
	ldrb	r3, [r3]	@ zero_extendqisi2
	mov	r2, r3
	.loc 1 283 14
	ldr	r3, [r7, #12]
	str	r2, [r3, #16]
.LBB20:
	.loc 1 284 13
	movs	r3, #0
	str	r3, [r7, #172]
	.loc 1 284 5
	b	.L72
.L73:
	.loc 1 284 26 discriminator 3
	ldr	r3, [r7, #172]
	adds	r3, r3, #1
	str	r3, [r7, #172]
.L72:
	.loc 1 284 19 discriminator 1
	ldr	r3, [r7, #172]
	movw	r2, #4999
	cmp	r3, r2
	ble	.L73
.LBE20:
	.loc 1 285 10
	nop
.L74:
	.loc 1 285 12 discriminator 1
	movs	r1, #4
	ldr	r0, [r7, #12]
	bl	I2C_Get_FlagStatus
	mov	r3, r0
	.loc 1 285 11 discriminator 1
	cmp	r3, #0
	beq	.L74
.LBB21:
	.loc 1 286 13
	movs	r3, #0
	str	r3, [r7, #168]
	.loc 1 286 5
	b	.L75
.L76:
	.loc 1 286 26 discriminator 3
	ldr	r3, [r7, #168]
	adds	r3, r3, #1
	str	r3, [r7, #168]
.L75:
	.loc 1 286 19 discriminator 1
	ldr	r3, [r7, #168]
	movw	r2, #4999
	cmp	r3, r2
	ble	.L76
.LBE21:
.LBB22:
	.loc 1 287 13
	movs	r3, #0
	str	r3, [r7, #164]
	.loc 1 287 5
	b	.L77
.L78:
	.loc 1 287 26 discriminator 3
	ldr	r3, [r7, #164]
	adds	r3, r3, #1
	str	r3, [r7, #164]
.L77:
	.loc 1 287 19 discriminator 1
	ldr	r3, [r7, #164]
	movw	r2, #4999
	cmp	r3, r2
	ble	.L78
.LBE22:
	.loc 1 289 14
	ldr	r3, [r7, #20]
	adds	r3, r3, #1
	str	r3, [r7, #20]
	.loc 1 289 24
	ldr	r3, [r7, #20]
	.loc 1 289 23
	ldr	r2, [r7, #4]
	add	r3, r3, r2
	ldrb	r3, [r3]	@ zero_extendqisi2
	mov	r2, r3
	.loc 1 289 14
	ldr	r3, [r7, #12]
	str	r2, [r3, #16]
.LBB23:
	.loc 1 290 13
	movs	r3, #0
	str	r3, [r7, #160]
	.loc 1 290 5
	b	.L79
.L80:
	.loc 1 290 26 discriminator 3
	ldr	r3, [r7, #160]
	adds	r3, r3, #1
	str	r3, [r7, #160]
.L79:
	.loc 1 290 19 discriminator 1
	ldr	r3, [r7, #160]
	movw	r2, #4999
	cmp	r3, r2
	ble	.L80
.LBE23:
	.loc 1 291 10
	nop
.L81:
	.loc 1 291 12 discriminator 1
	movs	r1, #4
	ldr	r0, [r7, #12]
	bl	I2C_Get_FlagStatus
	mov	r3, r0
	.loc 1 291 11 discriminator 1
	cmp	r3, #0
	beq	.L81
.LBB24:
	.loc 1 292 13
	movs	r3, #0
	str	r3, [r7, #156]
	.loc 1 292 5
	b	.L82
.L83:
	.loc 1 292 26 discriminator 3
	ldr	r3, [r7, #156]
	adds	r3, r3, #1
	str	r3, [r7, #156]
.L82:
	.loc 1 292 19 discriminator 1
	ldr	r3, [r7, #156]
	movw	r2, #4999
	cmp	r3, r2
	ble	.L83
.LBE24:
.LBB25:
	.loc 1 293 13
	movs	r3, #0
	str	r3, [r7, #152]
	.loc 1 293 5
	b	.L84
.L85:
	.loc 1 293 26 discriminator 3
	ldr	r3, [r7, #152]
	adds	r3, r3, #1
	str	r3, [r7, #152]
.L84:
	.loc 1 293 19 discriminator 1
	ldr	r3, [r7, #152]
	movw	r2, #4999
	cmp	r3, r2
	ble	.L85
.LBE25:
	.loc 1 295 14
	ldr	r3, [r7, #20]
	adds	r3, r3, #1
	str	r3, [r7, #20]
	.loc 1 295 24
	ldr	r3, [r7, #20]
	.loc 1 295 23
	ldr	r2, [r7, #4]
	add	r3, r3, r2
	ldrb	r3, [r3]	@ zero_extendqisi2
	mov	r2, r3
	.loc 1 295 14
	ldr	r3, [r7, #12]
	str	r2, [r3, #16]
.LBB26:
	.loc 1 296 13
	movs	r3, #0
	str	r3, [r7, #148]
	.loc 1 296 5
	b	.L86
.L87:
	.loc 1 296 26 discriminator 3
	ldr	r3, [r7, #148]
	adds	r3, r3, #1
	str	r3, [r7, #148]
.L86:
	.loc 1 296 19 discriminator 1
	ldr	r3, [r7, #148]
	movw	r2, #4999
	cmp	r3, r2
	ble	.L87
.LBE26:
	.loc 1 297 10
	nop
.L88:
	.loc 1 297 12 discriminator 1
	movs	r1, #4
	ldr	r0, [r7, #12]
	bl	I2C_Get_FlagStatus
	mov	r3, r0
	.loc 1 297 11 discriminator 1
	cmp	r3, #0
	beq	.L88
.LBB27:
	.loc 1 298 13
	movs	r3, #0
	str	r3, [r7, #144]
	.loc 1 298 5
	b	.L89
.L90:
	.loc 1 298 26 discriminator 3
	ldr	r3, [r7, #144]
	adds	r3, r3, #1
	str	r3, [r7, #144]
.L89:
	.loc 1 298 19 discriminator 1
	ldr	r3, [r7, #144]
	movw	r2, #4999
	cmp	r3, r2
	ble	.L90
.LBE27:
.LBB28:
	.loc 1 299 13
	movs	r3, #0
	str	r3, [r7, #140]
	.loc 1 299 5
	b	.L91
.L92:
	.loc 1 299 26 discriminator 3
	ldr	r3, [r7, #140]
	adds	r3, r3, #1
	str	r3, [r7, #140]
.L91:
	.loc 1 299 19 discriminator 1
	ldr	r3, [r7, #140]
	movw	r2, #4999
	cmp	r3, r2
	ble	.L92
.LBE28:
	.loc 1 301 4
	ldr	r3, [r7]
	cmp	r3, #15
	bls	.L43
	.loc 1 304 14
	ldr	r3, [r7, #20]
	adds	r3, r3, #1
	str	r3, [r7, #20]
	.loc 1 304 24
	ldr	r3, [r7, #20]
	.loc 1 304 23
	ldr	r2, [r7, #4]
	add	r3, r3, r2
	ldrb	r3, [r3]	@ zero_extendqisi2
	mov	r2, r3
	.loc 1 304 14
	ldr	r3, [r7, #12]
	str	r2, [r3, #16]
.LBB29:
	.loc 1 305 13
	movs	r3, #0
	str	r3, [r7, #136]
	.loc 1 305 5
	b	.L93
.L94:
	.loc 1 305 26 discriminator 3
	ldr	r3, [r7, #136]
	adds	r3, r3, #1
	str	r3, [r7, #136]
.L93:
	.loc 1 305 19 discriminator 1
	ldr	r3, [r7, #136]
	movw	r2, #4999
	cmp	r3, r2
	ble	.L94
.LBE29:
	.loc 1 306 10
	nop
.L95:
	.loc 1 306 12 discriminator 1
	movs	r1, #4
	ldr	r0, [r7, #12]
	bl	I2C_Get_FlagStatus
	mov	r3, r0
	.loc 1 306 11 discriminator 1
	cmp	r3, #0
	beq	.L95
.LBB30:
	.loc 1 307 13
	movs	r3, #0
	str	r3, [r7, #132]
	.loc 1 307 5
	b	.L96
.L97:
	.loc 1 307 26 discriminator 3
	ldr	r3, [r7, #132]
	adds	r3, r3, #1
	str	r3, [r7, #132]
.L96:
	.loc 1 307 19 discriminator 1
	ldr	r3, [r7, #132]
	movw	r2, #4999
	cmp	r3, r2
	ble	.L97
.LBE30:
.LBB31:
	.loc 1 308 13
	movs	r3, #0
	str	r3, [r7, #128]
	.loc 1 308 5
	b	.L98
.L99:
	.loc 1 308 26 discriminator 3
	ldr	r3, [r7, #128]
	adds	r3, r3, #1
	str	r3, [r7, #128]
.L98:
	.loc 1 308 19 discriminator 1
	ldr	r3, [r7, #128]
	movw	r2, #4999
	cmp	r3, r2
	ble	.L99
.LBE31:
	.loc 1 310 14
	ldr	r3, [r7, #20]
	adds	r3, r3, #1
	str	r3, [r7, #20]
	.loc 1 310 24
	ldr	r3, [r7, #20]
	.loc 1 310 23
	ldr	r2, [r7, #4]
	add	r3, r3, r2
	ldrb	r3, [r3]	@ zero_extendqisi2
	mov	r2, r3
	.loc 1 310 14
	ldr	r3, [r7, #12]
	str	r2, [r3, #16]
.LBB32:
	.loc 1 311 13
	movs	r3, #0
	str	r3, [r7, #124]
	.loc 1 311 5
	b	.L100
.L101:
	.loc 1 311 26 discriminator 3
	ldr	r3, [r7, #124]
	adds	r3, r3, #1
	str	r3, [r7, #124]
.L100:
	.loc 1 311 19 discriminator 1
	ldr	r3, [r7, #124]
	movw	r2, #4999
	cmp	r3, r2
	ble	.L101
.LBE32:
	.loc 1 312 10
	nop
.L102:
	.loc 1 312 12 discriminator 1
	movs	r1, #4
	ldr	r0, [r7, #12]
	bl	I2C_Get_FlagStatus
	mov	r3, r0
	.loc 1 312 11 discriminator 1
	cmp	r3, #0
	beq	.L102
.LBB33:
	.loc 1 313 13
	movs	r3, #0
	str	r3, [r7, #120]
	.loc 1 313 5
	b	.L103
.L104:
	.loc 1 313 26 discriminator 3
	ldr	r3, [r7, #120]
	adds	r3, r3, #1
	str	r3, [r7, #120]
.L103:
	.loc 1 313 19 discriminator 1
	ldr	r3, [r7, #120]
	movw	r2, #4999
	cmp	r3, r2
	ble	.L104
.LBE33:
.LBB34:
	.loc 1 314 13
	movs	r3, #0
	str	r3, [r7, #116]
	.loc 1 314 5
	b	.L105
.L106:
	.loc 1 314 26 discriminator 3
	ldr	r3, [r7, #116]
	adds	r3, r3, #1
	str	r3, [r7, #116]
.L105:
	.loc 1 314 19 discriminator 1
	ldr	r3, [r7, #116]
	movw	r2, #4999
	cmp	r3, r2
	ble	.L106
.LBE34:
	.loc 1 316 14
	ldr	r3, [r7, #20]
	adds	r3, r3, #1
	str	r3, [r7, #20]
	.loc 1 316 24
	ldr	r3, [r7, #20]
	.loc 1 316 23
	ldr	r2, [r7, #4]
	add	r3, r3, r2
	ldrb	r3, [r3]	@ zero_extendqisi2
	mov	r2, r3
	.loc 1 316 14
	ldr	r3, [r7, #12]
	str	r2, [r3, #16]
.LBB35:
	.loc 1 317 13
	movs	r3, #0
	str	r3, [r7, #112]
	.loc 1 317 5
	b	.L107
.L108:
	.loc 1 317 26 discriminator 3
	ldr	r3, [r7, #112]
	adds	r3, r3, #1
	str	r3, [r7, #112]
.L107:
	.loc 1 317 19 discriminator 1
	ldr	r3, [r7, #112]
	movw	r2, #4999
	cmp	r3, r2
	ble	.L108
.LBE35:
	.loc 1 318 10
	nop
.L109:
	.loc 1 318 12 discriminator 1
	movs	r1, #4
	ldr	r0, [r7, #12]
	bl	I2C_Get_FlagStatus
	mov	r3, r0
	.loc 1 318 11 discriminator 1
	cmp	r3, #0
	beq	.L109
.LBB36:
	.loc 1 319 13
	movs	r3, #0
	str	r3, [r7, #108]
	.loc 1 319 5
	b	.L110
.L111:
	.loc 1 319 26 discriminator 3
	ldr	r3, [r7, #108]
	adds	r3, r3, #1
	str	r3, [r7, #108]
.L110:
	.loc 1 319 19 discriminator 1
	ldr	r3, [r7, #108]
	movw	r2, #4999
	cmp	r3, r2
	ble	.L111
.LBE36:
.LBB37:
	.loc 1 320 13
	movs	r3, #0
	str	r3, [r7, #104]
	.loc 1 320 5
	b	.L112
.L113:
	.loc 1 320 26 discriminator 3
	ldr	r3, [r7, #104]
	adds	r3, r3, #1
	str	r3, [r7, #104]
.L112:
	.loc 1 320 19 discriminator 1
	ldr	r3, [r7, #104]
	movw	r2, #4999
	cmp	r3, r2
	ble	.L113
.LBE37:
	.loc 1 322 14
	ldr	r3, [r7, #20]
	adds	r3, r3, #1
	str	r3, [r7, #20]
	.loc 1 322 24
	ldr	r3, [r7, #20]
	.loc 1 322 23
	ldr	r2, [r7, #4]
	add	r3, r3, r2
	ldrb	r3, [r3]	@ zero_extendqisi2
	mov	r2, r3
	.loc 1 322 14
	ldr	r3, [r7, #12]
	str	r2, [r3, #16]
.LBB38:
	.loc 1 323 13
	movs	r3, #0
	str	r3, [r7, #100]
	.loc 1 323 5
	b	.L114
.L115:
	.loc 1 323 26 discriminator 3
	ldr	r3, [r7, #100]
	adds	r3, r3, #1
	str	r3, [r7, #100]
.L114:
	.loc 1 323 19 discriminator 1
	ldr	r3, [r7, #100]
	movw	r2, #4999
	cmp	r3, r2
	ble	.L115
.LBE38:
	.loc 1 324 10
	nop
.L116:
	.loc 1 324 12 discriminator 1
	movs	r1, #4
	ldr	r0, [r7, #12]
	bl	I2C_Get_FlagStatus
	mov	r3, r0
	.loc 1 324 11 discriminator 1
	cmp	r3, #0
	beq	.L116
.LBB39:
	.loc 1 325 13
	movs	r3, #0
	str	r3, [r7, #96]
	.loc 1 325 5
	b	.L117
.L118:
	.loc 1 325 26 discriminator 3
	ldr	r3, [r7, #96]
	adds	r3, r3, #1
	str	r3, [r7, #96]
.L117:
	.loc 1 325 19 discriminator 1
	ldr	r3, [r7, #96]
	movw	r2, #4999
	cmp	r3, r2
	ble	.L118
.LBE39:
.LBB40:
	.loc 1 326 13
	movs	r3, #0
	str	r3, [r7, #92]
	.loc 1 326 5
	b	.L119
.L120:
	.loc 1 326 26 discriminator 3
	ldr	r3, [r7, #92]
	adds	r3, r3, #1
	str	r3, [r7, #92]
.L119:
	.loc 1 326 19 discriminator 1
	ldr	r3, [r7, #92]
	movw	r2, #4999
	cmp	r3, r2
	ble	.L120
.LBE40:
	.loc 1 328 14
	ldr	r3, [r7, #20]
	adds	r3, r3, #1
	str	r3, [r7, #20]
	.loc 1 328 24
	ldr	r3, [r7, #20]
	.loc 1 328 23
	ldr	r2, [r7, #4]
	add	r3, r3, r2
	ldrb	r3, [r3]	@ zero_extendqisi2
	mov	r2, r3
	.loc 1 328 14
	ldr	r3, [r7, #12]
	str	r2, [r3, #16]
.LBB41:
	.loc 1 329 13
	movs	r3, #0
	str	r3, [r7, #88]
	.loc 1 329 5
	b	.L121
.L122:
	.loc 1 329 26 discriminator 3
	ldr	r3, [r7, #88]
	adds	r3, r3, #1
	str	r3, [r7, #88]
.L121:
	.loc 1 329 19 discriminator 1
	ldr	r3, [r7, #88]
	movw	r2, #4999
	cmp	r3, r2
	ble	.L122
.LBE41:
	.loc 1 330 10
	nop
.L123:
	.loc 1 330 12 discriminator 1
	movs	r1, #4
	ldr	r0, [r7, #12]
	bl	I2C_Get_FlagStatus
	mov	r3, r0
	.loc 1 330 11 discriminator 1
	cmp	r3, #0
	beq	.L123
.LBB42:
	.loc 1 331 13
	movs	r3, #0
	str	r3, [r7, #84]
	.loc 1 331 5
	b	.L124
.L125:
	.loc 1 331 26 discriminator 3
	ldr	r3, [r7, #84]
	adds	r3, r3, #1
	str	r3, [r7, #84]
.L124:
	.loc 1 331 19 discriminator 1
	ldr	r3, [r7, #84]
	movw	r2, #4999
	cmp	r3, r2
	ble	.L125
.LBE42:
.LBB43:
	.loc 1 332 13
	movs	r3, #0
	str	r3, [r7, #80]
	.loc 1 332 5
	b	.L126
.L127:
	.loc 1 332 26 discriminator 3
	ldr	r3, [r7, #80]
	adds	r3, r3, #1
	str	r3, [r7, #80]
.L126:
	.loc 1 332 19 discriminator 1
	ldr	r3, [r7, #80]
	movw	r2, #4999
	cmp	r3, r2
	ble	.L127
.LBE43:
	.loc 1 334 14
	ldr	r3, [r7, #20]
	adds	r3, r3, #1
	str	r3, [r7, #20]
	.loc 1 334 24
	ldr	r3, [r7, #20]
	.loc 1 334 23
	ldr	r2, [r7, #4]
	add	r3, r3, r2
	ldrb	r3, [r3]	@ zero_extendqisi2
	mov	r2, r3
	.loc 1 334 14
	ldr	r3, [r7, #12]
	str	r2, [r3, #16]
.LBB44:
	.loc 1 335 13
	movs	r3, #0
	str	r3, [r7, #76]
	.loc 1 335 5
	b	.L128
.L129:
	.loc 1 335 26 discriminator 3
	ldr	r3, [r7, #76]
	adds	r3, r3, #1
	str	r3, [r7, #76]
.L128:
	.loc 1 335 19 discriminator 1
	ldr	r3, [r7, #76]
	movw	r2, #4999
	cmp	r3, r2
	ble	.L129
.LBE44:
	.loc 1 336 10
	nop
.L130:
	.loc 1 336 12 discriminator 1
	movs	r1, #4
	ldr	r0, [r7, #12]
	bl	I2C_Get_FlagStatus
	mov	r3, r0
	.loc 1 336 11 discriminator 1
	cmp	r3, #0
	beq	.L130
.LBB45:
	.loc 1 337 13
	movs	r3, #0
	str	r3, [r7, #72]
	.loc 1 337 5
	b	.L131
.L132:
	.loc 1 337 26 discriminator 3
	ldr	r3, [r7, #72]
	adds	r3, r3, #1
	str	r3, [r7, #72]
.L131:
	.loc 1 337 19 discriminator 1
	ldr	r3, [r7, #72]
	movw	r2, #4999
	cmp	r3, r2
	ble	.L132
.LBE45:
.LBB46:
	.loc 1 338 13
	movs	r3, #0
	str	r3, [r7, #68]
	.loc 1 338 5
	b	.L133
.L134:
	.loc 1 338 26 discriminator 3
	ldr	r3, [r7, #68]
	adds	r3, r3, #1
	str	r3, [r7, #68]
.L133:
	.loc 1 338 19 discriminator 1
	ldr	r3, [r7, #68]
	movw	r2, #4999
	cmp	r3, r2
	ble	.L134
.LBE46:
	.loc 1 340 14
	ldr	r3, [r7, #20]
	adds	r3, r3, #1
	str	r3, [r7, #20]
	.loc 1 340 24
	ldr	r3, [r7, #20]
	.loc 1 340 23
	ldr	r2, [r7, #4]
	add	r3, r3, r2
	ldrb	r3, [r3]	@ zero_extendqisi2
	mov	r2, r3
	.loc 1 340 14
	ldr	r3, [r7, #12]
	str	r2, [r3, #16]
.LBB47:
	.loc 1 341 13
	movs	r3, #0
	str	r3, [r7, #64]
	.loc 1 341 5
	b	.L135
.L136:
	.loc 1 341 26 discriminator 3
	ldr	r3, [r7, #64]
	adds	r3, r3, #1
	str	r3, [r7, #64]
.L135:
	.loc 1 341 19 discriminator 1
	ldr	r3, [r7, #64]
	movw	r2, #4999
	cmp	r3, r2
	ble	.L136
.LBE47:
	.loc 1 342 10
	nop
.L137:
	.loc 1 342 12 discriminator 1
	movs	r1, #4
	ldr	r0, [r7, #12]
	bl	I2C_Get_FlagStatus
	mov	r3, r0
	.loc 1 342 11 discriminator 1
	cmp	r3, #0
	beq	.L137
.LBB48:
	.loc 1 343 13
	movs	r3, #0
	str	r3, [r7, #60]
	.loc 1 343 5
	b	.L138
.L139:
	.loc 1 343 26 discriminator 3
	ldr	r3, [r7, #60]
	adds	r3, r3, #1
	str	r3, [r7, #60]
.L138:
	.loc 1 343 19 discriminator 1
	ldr	r3, [r7, #60]
	movw	r2, #4999
	cmp	r3, r2
	ble	.L139
.LBE48:
.LBB49:
	.loc 1 344 13
	movs	r3, #0
	str	r3, [r7, #56]
	.loc 1 344 5
	b	.L140
.L141:
	.loc 1 344 26 discriminator 3
	ldr	r3, [r7, #56]
	adds	r3, r3, #1
	str	r3, [r7, #56]
.L140:
	.loc 1 344 19 discriminator 1
	ldr	r3, [r7, #56]
	movw	r2, #4999
	cmp	r3, r2
	ble	.L141
.LBE49:
	.loc 1 346 14
	ldr	r3, [r7, #20]
	adds	r3, r3, #1
	str	r3, [r7, #20]
	.loc 1 346 24
	ldr	r3, [r7, #20]
	.loc 1 346 23
	ldr	r2, [r7, #4]
	add	r3, r3, r2
	ldrb	r3, [r3]	@ zero_extendqisi2
	mov	r2, r3
	.loc 1 346 14
	ldr	r3, [r7, #12]
	str	r2, [r3, #16]
.LBB50:
	.loc 1 347 13
	movs	r3, #0
	str	r3, [r7, #52]
	.loc 1 347 5
	b	.L142
.L143:
	.loc 1 347 26 discriminator 3
	ldr	r3, [r7, #52]
	adds	r3, r3, #1
	str	r3, [r7, #52]
.L142:
	.loc 1 347 19 discriminator 1
	ldr	r3, [r7, #52]
	movw	r2, #4999
	cmp	r3, r2
	ble	.L143
.LBE50:
	.loc 1 348 10
	nop
.L144:
	.loc 1 348 12 discriminator 1
	movs	r1, #4
	ldr	r0, [r7, #12]
	bl	I2C_Get_FlagStatus
	mov	r3, r0
	.loc 1 348 11 discriminator 1
	cmp	r3, #0
	beq	.L144
.LBB51:
	.loc 1 349 13
	movs	r3, #0
	str	r3, [r7, #48]
	.loc 1 349 5
	b	.L145
.L146:
	.loc 1 349 26 discriminator 3
	ldr	r3, [r7, #48]
	adds	r3, r3, #1
	str	r3, [r7, #48]
.L145:
	.loc 1 349 19 discriminator 1
	ldr	r3, [r7, #48]
	movw	r2, #4999
	cmp	r3, r2
	ble	.L146
.LBE51:
.LBB52:
	.loc 1 350 13
	movs	r3, #0
	str	r3, [r7, #44]
	.loc 1 350 5
	b	.L147
.L148:
	.loc 1 350 26 discriminator 3
	ldr	r3, [r7, #44]
	adds	r3, r3, #1
	str	r3, [r7, #44]
.L147:
	.loc 1 350 19 discriminator 1
	ldr	r3, [r7, #44]
	movw	r2, #4999
	cmp	r3, r2
	ble	.L148
.LBE52:
	.loc 1 352 14
	ldr	r3, [r7, #20]
	adds	r3, r3, #1
	str	r3, [r7, #20]
	.loc 1 352 24
	ldr	r3, [r7, #20]
	.loc 1 352 23
	ldr	r2, [r7, #4]
	add	r3, r3, r2
	ldrb	r3, [r3]	@ zero_extendqisi2
	mov	r2, r3
	.loc 1 352 14
	ldr	r3, [r7, #12]
	str	r2, [r3, #16]
.LBB53:
	.loc 1 353 13
	movs	r3, #0
	str	r3, [r7, #40]
	.loc 1 353 5
	b	.L149
.L150:
	.loc 1 353 26 discriminator 3
	ldr	r3, [r7, #40]
	adds	r3, r3, #1
	str	r3, [r7, #40]
.L149:
	.loc 1 353 19 discriminator 1
	ldr	r3, [r7, #40]
	movw	r2, #4999
	cmp	r3, r2
	ble	.L150
.LBE53:
	.loc 1 354 10
	nop
.L151:
	.loc 1 354 12 discriminator 1
	movs	r1, #4
	ldr	r0, [r7, #12]
	bl	I2C_Get_FlagStatus
	mov	r3, r0
	.loc 1 354 11 discriminator 1
	cmp	r3, #0
	beq	.L151
.LBB54:
	.loc 1 355 13
	movs	r3, #0
	str	r3, [r7, #36]
	.loc 1 355 5
	b	.L152
.L153:
	.loc 1 355 26 discriminator 3
	ldr	r3, [r7, #36]
	adds	r3, r3, #1
	str	r3, [r7, #36]
.L152:
	.loc 1 355 19 discriminator 1
	ldr	r3, [r7, #36]
	movw	r2, #4999
	cmp	r3, r2
	ble	.L153
.LBE54:
.LBB55:
	.loc 1 356 13
	movs	r3, #0
	str	r3, [r7, #32]
	.loc 1 356 5
	b	.L154
.L155:
	.loc 1 356 26 discriminator 3
	ldr	r3, [r7, #32]
	adds	r3, r3, #1
	str	r3, [r7, #32]
.L154:
	.loc 1 356 19 discriminator 1
	ldr	r3, [r7, #32]
	movw	r2, #4999
	cmp	r3, r2
	ble	.L155
.L43:
.LBE55:
	.loc 1 361 4
	ldrb	r3, [r7, #256]	@ zero_extendqisi2
	cmp	r3, #0
	bne	.L161
	.loc 1 363 3
	movs	r1, #1
	ldr	r0, [r7, #12]
	bl	I2C_Generate_Stop
.LBB56:
	.loc 1 364 3
	b	.L157
.L158:
	.loc 1 364 22 discriminator 2
	ldr	r3, [r7, #28]
	adds	r3, r3, #1
	str	r3, [r7, #28]
.L157:
	.loc 1 364 15 discriminator 1
	ldr	r3, [r7, #28]
	movw	r2, #4999
	cmp	r3, r2
	ble	.L158
.LBE56:
.LBB57:
	.loc 1 365 3
	b	.L159
.L160:
	.loc 1 365 22 discriminator 2
	ldr	r3, [r7, #24]
	adds	r3, r3, #1
	str	r3, [r7, #24]
.L159:
	.loc 1 365 15 discriminator 1
	ldr	r3, [r7, #24]
	movw	r2, #4999
	cmp	r3, r2
	ble	.L160
.L161:
.LBE57:
	.loc 1 368 1
	nop
	adds	r7, r7, #248
	.cfi_def_cfa_offset 8
	mov	sp, r7
	.cfi_def_cfa_register 13
	@ sp needed
	pop	{r7, pc}
	.cfi_endproc
.LFE6:
	.size	MCAL_I2C_Master_Tx, .-MCAL_I2C_Master_Tx
	.align	1
	.global	MCAL_I2C_Master_Rx
	.syntax unified
	.thumb
	.thumb_func
	.type	MCAL_I2C_Master_Rx, %function
MCAL_I2C_Master_Rx:
.LFB7:
	.loc 1 384 1
	.cfi_startproc
	@ args = 8, pretend = 0, frame = 24
	@ frame_needed = 1, uses_anonymous_args = 0
	push	{r7, lr}
	.cfi_def_cfa_offset 8
	.cfi_offset 7, -8
	.cfi_offset 14, -4
	sub	sp, sp, #24
	.cfi_def_cfa_offset 32
	add	r7, sp, #0
	.cfi_def_cfa_register 7
	str	r0, [r7, #12]
	str	r2, [r7, #4]
	str	r3, [r7]
	mov	r3, r1	@ movhi
	strh	r3, [r7, #10]	@ movhi
	.loc 1 385 14
	ldr	r3, [r7]
	str	r3, [r7, #20]
	.loc 1 388 5
	movs	r1, #1
	ldr	r0, [r7, #12]
	bl	I2C_ACKnowlageConfig
	.loc 1 391 5
	ldrb	r3, [r7, #36]	@ zero_extendqisi2
	mov	r2, r3
	movs	r1, #1
	ldr	r0, [r7, #12]
	bl	I2C_Generate_Start
	.loc 1 394 11
	nop
.L165:
	.loc 1 394 13 discriminator 1
	movs	r1, #1
	ldr	r0, [r7, #12]
	bl	I2C_Get_FlagStatus
	mov	r3, r0
	.loc 1 394 12 discriminator 1
	cmp	r3, #0
	beq	.L165
	.loc 1 397 5
	ldrh	r3, [r7, #10]
	movs	r2, #1
	mov	r1, r3
	ldr	r0, [r7, #12]
	bl	I2C_SendAddress
	.loc 1 400 11
	nop
.L166:
	.loc 1 400 13 discriminator 1
	movs	r1, #2
	ldr	r0, [r7, #12]
	bl	I2C_Get_FlagStatus
	mov	r3, r0
	.loc 1 400 12 discriminator 1
	cmp	r3, #0
	beq	.L166
	.loc 1 403 11
	b	.L167
.L170:
	.loc 1 404 15
	nop
.L168:
	.loc 1 404 17 discriminator 1
	movs	r1, #3
	ldr	r0, [r7, #12]
	bl	I2C_Get_FlagStatus
	mov	r3, r0
	.loc 1 404 16 discriminator 1
	cmp	r3, #0
	beq	.L168
	.loc 1 405 26
	ldr	r3, [r7, #12]
	ldr	r1, [r3, #16]
	.loc 1 405 17
	ldr	r3, [r7, #4]
	adds	r2, r3, #1
	str	r2, [r7, #4]
	.loc 1 405 20
	uxtb	r2, r1
	strb	r2, [r3]
	.loc 1 406 12
	ldr	r3, [r7, #20]
	cmp	r3, #1
	bne	.L167
	.loc 1 408 13
	movs	r1, #0
	ldr	r0, [r7, #12]
	bl	I2C_ACKnowlageConfig
.L167:
	.loc 1 403 13
	ldr	r3, [r7, #20]
	subs	r2, r3, #1
	str	r2, [r7, #20]
	.loc 1 403 12
	cmp	r3, #0
	bne	.L170
	.loc 1 413 8
	ldrb	r3, [r7, #32]	@ zero_extendqisi2
	cmp	r3, #0
	bne	.L172
	.loc 1 414 9
	movs	r1, #1
	ldr	r0, [r7, #12]
	bl	I2C_Generate_Stop
.L172:
	.loc 1 416 1
	nop
	adds	r7, r7, #24
	.cfi_def_cfa_offset 8
	mov	sp, r7
	.cfi_def_cfa_register 13
	@ sp needed
	pop	{r7, pc}
	.cfi_endproc
.LFE7:
	.size	MCAL_I2C_Master_Rx, .-MCAL_I2C_Master_Rx
	.align	1
	.global	I2C_Generate_Start
	.syntax unified
	.thumb
	.thumb_func
	.type	I2C_Generate_Start, %function
I2C_Generate_Start:
.LFB8:
	.loc 1 429 1
	.cfi_startproc
	@ args = 0, pretend = 0, frame = 8
	@ frame_needed = 1, uses_anonymous_args = 0
	push	{r7, lr}
	.cfi_def_cfa_offset 8
	.cfi_offset 7, -8
	.cfi_offset 14, -4
	sub	sp, sp, #8
	.cfi_def_cfa_offset 16
	add	r7, sp, #0
	.cfi_def_cfa_register 7
	str	r0, [r7, #4]
	mov	r3, r1
	strb	r3, [r7, #3]
	mov	r3, r2
	strb	r3, [r7, #2]
	.loc 1 430 8
	ldrb	r3, [r7, #2]	@ zero_extendqisi2
	cmp	r3, #1
	bne	.L174
	.loc 1 431 15
	nop
.L175:
	.loc 1 431 16 discriminator 1
	movs	r1, #0
	ldr	r0, [r7, #4]
	bl	I2C_Get_FlagStatus
	mov	r3, r0
	cmp	r3, #0
	bne	.L175
.L174:
	.loc 1 434 8
	ldrb	r3, [r7, #3]	@ zero_extendqisi2
	cmp	r3, #1
	bne	.L176
	.loc 1 435 13
	ldr	r3, [r7, #4]
	ldr	r3, [r3]
	.loc 1 435 19
	orr	r2, r3, #256
	ldr	r3, [r7, #4]
	str	r2, [r3]
	.loc 1 439 1
	b	.L178
.L176:
	.loc 1 437 13
	ldr	r3, [r7, #4]
	ldr	r3, [r3]
	.loc 1 437 19
	bic	r2, r3, #256
	ldr	r3, [r7, #4]
	str	r2, [r3]
.L178:
	.loc 1 439 1
	nop
	adds	r7, r7, #8
	.cfi_def_cfa_offset 8
	mov	sp, r7
	.cfi_def_cfa_register 13
	@ sp needed
	pop	{r7, pc}
	.cfi_endproc
.LFE8:
	.size	I2C_Generate_Start, .-I2C_Generate_Start
	.align	1
	.global	I2C_ACKnowlageConfig
	.syntax unified
	.thumb
	.thumb_func
	.type	I2C_ACKnowlageConfig, %function
I2C_ACKnowlageConfig:
.LFB9:
	.loc 1 450 1
	.cfi_startproc
	@ args = 0, pretend = 0, frame = 8
	@ frame_needed = 1, uses_anonymous_args = 0
	@ link register save eliminated.
	push	{r7}
	.cfi_def_cfa_offset 4
	.cfi_offset 7, -4
	sub	sp, sp, #12
	.cfi_def_cfa_offset 16
	add	r7, sp, #0
	.cfi_def_cfa_register 7
	str	r0, [r7, #4]
	mov	r3, r1
	strb	r3, [r7, #3]
	.loc 1 451 8
	ldrb	r3, [r7, #3]	@ zero_extendqisi2
	cmp	r3, #0
	beq	.L180
	.loc 1 452 13
	ldr	r3, [r7, #4]
	ldr	r3, [r3]
	.loc 1 452 19
	orr	r2, r3, #1024
	ldr	r3, [r7, #4]
	str	r2, [r3]
	.loc 1 456 1
	b	.L182
.L180:
	.loc 1 454 13
	ldr	r3, [r7, #4]
	ldr	r3, [r3]
	.loc 1 454 19
	bic	r2, r3, #1024
	ldr	r3, [r7, #4]
	str	r2, [r3]
.L182:
	.loc 1 456 1
	nop
	adds	r7, r7, #12
	.cfi_def_cfa_offset 4
	mov	sp, r7
	.cfi_def_cfa_register 13
	@ sp needed
	pop	{r7}
	.cfi_restore 7
	.cfi_def_cfa_offset 0
	bx	lr
	.cfi_endproc
.LFE9:
	.size	I2C_ACKnowlageConfig, .-I2C_ACKnowlageConfig
	.align	1
	.global	I2C_Get_FlagStatus
	.syntax unified
	.thumb
	.thumb_func
	.type	I2C_Get_FlagStatus, %function
I2C_Get_FlagStatus:
.LFB10:
	.loc 1 468 1
	.cfi_startproc
	@ args = 0, pretend = 0, frame = 24
	@ frame_needed = 1, uses_anonymous_args = 0
	@ link register save eliminated.
	push	{r7}
	.cfi_def_cfa_offset 4
	.cfi_offset 7, -4
	sub	sp, sp, #28
	.cfi_def_cfa_offset 32
	add	r7, sp, #0
	.cfi_def_cfa_register 7
	str	r0, [r7, #4]
	str	r1, [r7]
	.loc 1 469 16
	movs	r3, #0
	strb	r3, [r7, #23]
	.loc 1 470 14
	movs	r3, #0
	str	r3, [r7, #16]
	.loc 1 470 25
	movs	r3, #0
	str	r3, [r7, #12]
	.loc 1 473 5
	ldr	r3, [r7]
	cmp	r3, #5
	bhi	.L184
	ldr	r3, [r7]
	cmp	r3, #5
	bhi	.L185
	adr	r2, .L187
	ldr	pc, [r2, r3, lsl #2]
	.p2align 2
.L187:
	.word	.L191+1
	.word	.L190+1
	.word	.L189+1
	.word	.L188+1
	.word	.L186+1
	.word	.L186+1
	.p2align 1
.L184:
	ldr	r3, [r7]
	ldr	r2, .L195
	cmp	r3, r2
	beq	.L192
	b	.L185
.L191:
	.loc 1 475 26
	ldr	r3, [r7, #4]
	ldr	r3, [r3, #24]
	.loc 1 475 60
	lsrs	r3, r3, #1
	uxtb	r3, r3
	.loc 1 475 18
	and	r3, r3, #1
	strb	r3, [r7, #23]
	.loc 1 476 13
	b	.L185
.L190:
	.loc 1 479 26
	ldr	r3, [r7, #4]
	ldr	r3, [r3, #20]
	.loc 1 479 58
	uxtb	r3, r3
	.loc 1 479 18
	and	r3, r3, #1
	strb	r3, [r7, #23]
	.loc 1 480 13
	b	.L185
.L189:
	.loc 1 483 26
	ldr	r3, [r7, #4]
	ldr	r3, [r3, #20]
	.loc 1 483 60
	lsrs	r3, r3, #1
	uxtb	r3, r3
	.loc 1 483 18
	and	r3, r3, #1
	strb	r3, [r7, #23]
	.loc 1 484 13
	b	.L185
.L192:
	.loc 1 487 19
	ldr	r3, [r7, #4]
	ldr	r3, [r3, #20]
	str	r3, [r7, #16]
	.loc 1 488 25
	ldr	r3, [r7, #4]
	ldr	r3, [r3, #24]
	.loc 1 488 19
	lsls	r3, r3, #16
	str	r3, [r7, #12]
	.loc 1 489 33
	ldr	r2, [r7, #16]
	ldr	r3, [r7, #12]
	orrs	r3, r3, r2
	.loc 1 489 24
	bic	r3, r3, #-16777216
	str	r3, [r7, #8]
	.loc 1 490 33
	ldr	r2, [r7, #8]
	ldr	r3, [r7]
	ands	r3, r3, r2
	.loc 1 490 56
	ldr	r2, [r7]
	cmp	r2, r3
	ite	eq
	moveq	r3, #1
	movne	r3, #0
	uxtb	r3, r3
	.loc 1 490 18
	strb	r3, [r7, #23]
	.loc 1 491 13
	b	.L185
.L186:
	.loc 1 495 26
	ldr	r3, [r7, #4]
	ldr	r3, [r3, #20]
	.loc 1 495 59
	lsrs	r3, r3, #7
	uxtb	r3, r3
	.loc 1 495 18
	and	r3, r3, #1
	strb	r3, [r7, #23]
	.loc 1 496 13
	b	.L185
.L188:
	.loc 1 499 26
	ldr	r3, [r7, #4]
	ldr	r3, [r3, #20]
	.loc 1 499 60
	lsrs	r3, r3, #6
	uxtb	r3, r3
	.loc 1 499 18
	and	r3, r3, #1
	strb	r3, [r7, #23]
	.loc 1 500 13
	nop
.L185:
	.loc 1 503 12
	ldrb	r3, [r7, #23]	@ zero_extendqisi2
	.loc 1 504 1
	mov	r0, r3
	adds	r7, r7, #28
	.cfi_def_cfa_offset 4
	mov	sp, r7
	.cfi_def_cfa_register 13
	@ sp needed
	pop	{r7}
	.cfi_restore 7
	.cfi_def_cfa_offset 0
	bx	lr
.L196:
	.align	2
.L195:
	.word	458880
	.cfi_endproc
.LFE10:
	.size	I2C_Get_FlagStatus, .-I2C_Get_FlagStatus
	.align	1
	.global	I2C_SendAddress
	.syntax unified
	.thumb
	.thumb_func
	.type	I2C_SendAddress, %function
I2C_SendAddress:
.LFB11:
	.loc 1 516 1
	.cfi_startproc
	@ args = 0, pretend = 0, frame = 8
	@ frame_needed = 1, uses_anonymous_args = 0
	@ link register save eliminated.
	push	{r7}
	.cfi_def_cfa_offset 4
	.cfi_offset 7, -4
	sub	sp, sp, #12
	.cfi_def_cfa_offset 16
	add	r7, sp, #0
	.cfi_def_cfa_register 7
	str	r0, [r7, #4]
	mov	r3, r1
	strh	r3, [r7, #2]	@ movhi
	mov	r3, r2
	strb	r3, [r7, #1]
	.loc 1 517 18
	ldrh	r3, [r7, #2]	@ movhi
	lsls	r3, r3, #1
	strh	r3, [r7, #2]	@ movhi
	.loc 1 519 8
	ldrb	r3, [r7, #1]	@ zero_extendqisi2
	cmp	r3, #0
	beq	.L198
	.loc 1 520 22
	ldrh	r3, [r7, #2]	@ movhi
	orr	r3, r3, #1
	strh	r3, [r7, #2]	@ movhi
.L198:
	.loc 1 523 14
	ldrh	r2, [r7, #2]
	ldr	r3, [r7, #4]
	str	r2, [r3, #16]
	.loc 1 524 1
	nop
	adds	r7, r7, #12
	.cfi_def_cfa_offset 4
	mov	sp, r7
	.cfi_def_cfa_register 13
	@ sp needed
	pop	{r7}
	.cfi_restore 7
	.cfi_def_cfa_offset 0
	bx	lr
	.cfi_endproc
.LFE11:
	.size	I2C_SendAddress, .-I2C_SendAddress
	.align	1
	.global	I2C_Generate_Stop
	.syntax unified
	.thumb
	.thumb_func
	.type	I2C_Generate_Stop, %function
I2C_Generate_Stop:
.LFB12:
	.loc 1 535 1
	.cfi_startproc
	@ args = 0, pretend = 0, frame = 8
	@ frame_needed = 1, uses_anonymous_args = 0
	@ link register save eliminated.
	push	{r7}
	.cfi_def_cfa_offset 4
	.cfi_offset 7, -4
	sub	sp, sp, #12
	.cfi_def_cfa_offset 16
	add	r7, sp, #0
	.cfi_def_cfa_register 7
	str	r0, [r7, #4]
	mov	r3, r1
	strb	r3, [r7, #3]
	.loc 1 536 8
	ldrb	r3, [r7, #3]	@ zero_extendqisi2
	cmp	r3, #0
	beq	.L200
	.loc 1 537 13
	ldr	r3, [r7, #4]
	ldr	r3, [r3]
	.loc 1 537 19
	orr	r2, r3, #512
	ldr	r3, [r7, #4]
	str	r2, [r3]
	.loc 1 541 1
	b	.L202
.L200:
	.loc 1 539 13
	ldr	r3, [r7, #4]
	ldr	r3, [r3]
	.loc 1 539 19
	bic	r2, r3, #512
	ldr	r3, [r7, #4]
	str	r2, [r3]
.L202:
	.loc 1 541 1
	nop
	adds	r7, r7, #12
	.cfi_def_cfa_offset 4
	mov	sp, r7
	.cfi_def_cfa_register 13
	@ sp needed
	pop	{r7}
	.cfi_restore 7
	.cfi_def_cfa_offset 0
	bx	lr
	.cfi_endproc
.LFE12:
	.size	I2C_Generate_Stop, .-I2C_Generate_Stop
	.align	1
	.global	MCAL_I2C_Slave_SendData
	.syntax unified
	.thumb
	.thumb_func
	.type	MCAL_I2C_Slave_SendData, %function
MCAL_I2C_Slave_SendData:
.LFB13:
	.loc 1 552 1
	.cfi_startproc
	@ args = 0, pretend = 0, frame = 8
	@ frame_needed = 1, uses_anonymous_args = 0
	@ link register save eliminated.
	push	{r7}
	.cfi_def_cfa_offset 4
	.cfi_offset 7, -4
	sub	sp, sp, #12
	.cfi_def_cfa_offset 16
	add	r7, sp, #0
	.cfi_def_cfa_register 7
	str	r0, [r7, #4]
	mov	r3, r1
	strb	r3, [r7, #3]
	.loc 1 553 14
	ldrb	r2, [r7, #3]	@ zero_extendqisi2
	ldr	r3, [r7, #4]
	str	r2, [r3, #16]
	.loc 1 554 1
	nop
	adds	r7, r7, #12
	.cfi_def_cfa_offset 4
	mov	sp, r7
	.cfi_def_cfa_register 13
	@ sp needed
	pop	{r7}
	.cfi_restore 7
	.cfi_def_cfa_offset 0
	bx	lr
	.cfi_endproc
.LFE13:
	.size	MCAL_I2C_Slave_SendData, .-MCAL_I2C_Slave_SendData
	.align	1
	.global	MCAL_I2C_SlaveReceiveData
	.syntax unified
	.thumb
	.thumb_func
	.type	MCAL_I2C_SlaveReceiveData, %function
MCAL_I2C_SlaveReceiveData:
.LFB14:
	.loc 1 565 1
	.cfi_startproc
	@ args = 0, pretend = 0, frame = 8
	@ frame_needed = 1, uses_anonymous_args = 0
	@ link register save eliminated.
	push	{r7}
	.cfi_def_cfa_offset 4
	.cfi_offset 7, -4
	sub	sp, sp, #12
	.cfi_def_cfa_offset 16
	add	r7, sp, #0
	.cfi_def_cfa_register 7
	str	r0, [r7, #4]
	.loc 1 566 16
	ldr	r3, [r7, #4]
	ldr	r3, [r3, #16]
	uxtb	r3, r3
	.loc 1 567 1
	mov	r0, r3
	adds	r7, r7, #12
	.cfi_def_cfa_offset 4
	mov	sp, r7
	.cfi_def_cfa_register 13
	@ sp needed
	pop	{r7}
	.cfi_restore 7
	.cfi_def_cfa_offset 0
	bx	lr
	.cfi_endproc
.LFE14:
	.size	MCAL_I2C_SlaveReceiveData, .-MCAL_I2C_SlaveReceiveData
.Letext0:
	.file 2 "/opt/st/stm32cubeclt_1.16.0/GNU-tools-for-STM32/arm-none-eabi/include/machine/_default_types.h"
	.file 3 "/opt/st/stm32cubeclt_1.16.0/GNU-tools-for-STM32/arm-none-eabi/include/sys/_stdint.h"
	.file 4 "drivers/Inc/Platform_Types.h"
	.file 5 "drivers/Inc/stm32f401xx.h"
	.file 6 "drivers/Inc/stm32f401xx_gpio_driver.h"
	.file 7 "drivers/Inc/stm32f401xx_i2c_driver.h"
	.file 8 "drivers/Inc/stm32f401xx_rcc_driver.h"