	.cpu cortex-m4
	.arch armv7e-m
	.fpu softvfp
	.eabi_attribute 20, 1
	.eabi_attribute 21, 1
	.eabi_attribute 23, 3
	.eabi_attribute 24, 1
	.eabi_attribute 25, 1
	.eabi_attribute 26, 1
	.eabi_attribute 30, 6
	.eabi_attribute 34, 1
	.eabi_attribute 18, 4
	.file	"sysmem.c"
	.text
.Ltext0:
	.cfi_sections	.debug_frame
	.file 1 "Src/sysmem.c"
	.bss
	.align	2
__sbrk_heap_end:
	.space	4
	.size	__sbrk_heap_end, 4
	.text
	.align	1
	.global	_sbrk
	.syntax unified
	.thumb
	.thumb_func
	.type	_sbrk, %function
_sbrk:
.LFB0:
	.loc 1 54 1
	.cfi_startproc
	@ args = 0, pretend = 0, frame = 24
	@ frame_needed = 1, uses_anonymous_args = 0
	push	{r7, lr}
	.cfi_def_cfa_offset 8
	.cfi_offset 7, -8
	.cfi_offset 14, -4
	sub	sp, sp, #24
	.cfi_def_cfa_offset 32
	add	r7, sp, #0
	.cfi_def_cfa_register 7
	str	r0, [r7, #4]
	.loc 1 58 32
	ldr	r2, .L5
	.loc 1 58 53
	ldr	r3, .L5+4
	.loc 1 58 18
	subs	r3, r2, r3
	str	r3, [r7, #20]
	.loc 1 59 18
	ldr	r3, [r7, #20]
	str	r3, [r7, #16]
	.loc 1 63 12
	ldr	r3, .L5+8
	ldr	r3, [r3]
	.loc 1 63 6
	cmp	r3, #0
	bne	.L2
	.loc 1 65 21
	ldr	r3, .L5+8
	ldr	r2, .L5+12
	str	r2, [r3]
.L2:
	.loc 1 69 23
	ldr	r3, .L5+8
	ldr	r2, [r3]
	ldr	r3, [r7, #4]
	add	r3, r3, r2
	.loc 1 69 6
	ldr	r2, [r7, #16]
	cmp	r2, r3
	bcs	.L3
	.loc 1 71 5
	bl	__errno
	mov	r3, r0
	.loc 1 71 11
	movs	r2, #12
	str	r2, [r3]
	.loc 1 72 12
	mov	r3, #-1
	b	.L4
.L3:
	.loc 1 75 17
	ldr	r3, .L5+8
	ldr	r3, [r3]
	str	r3, [r7, #12]
	.loc 1 76 19
	ldr	r3, .L5+8
	ldr	r2, [r3]
	ldr	r3, [r7, #4]
	add	r3, r3, r2
	ldr	r2, .L5+8
	str	r3, [r2]
	.loc 1 78 10
	ldr	r3, [r7, #12]
.L4:
	.loc 1 79 1
	mov	r0, r3
	adds	r7, r7, #24
	.cfi_def_cfa_offset 8
	mov	sp, r7
	.cfi_def_cfa_register 13
	@ sp needed
	pop	{r7, pc}
.L6:
	.align	2
.L5:
	.word	_estack
	.word	_Min_Stack_Size
	.word	__sbrk_heap_end
	.word	_end
	.cfi_endproc
.LFE0:
	.size	_sbrk, .-_sbrk
.Letext0:
	.file 2 "/opt/st/stm32cubeclt_1.16.0/GNU-tools-for-STM32/lib/gcc/arm-none-eabi/12.3.1/include/stddef.h"
	.file 3 "/opt/st/stm32cubeclt_1.16.0/GNU-tools-for-STM32/arm-none-eabi/include/machine/_default_types.h"
	.file 4 "/opt/st/stm32cubeclt_1.16.0/GNU-tools-for-STM32/arm-none-eabi/include/sys/_stdint.h"
	.file 5 "/opt/st/stm32cubeclt_1.16.0/GNU-tools-for-STM32/arm-none-eabi/include/sys/errno.h"