	.cpu cortex-m4
	.arch armv7e-m
	.fpu softvfp
	.eabi_attribute 20, 1
	.eabi_attribute 21, 1
	.eabi_attribute 23, 3
	.eabi_attribute 24, 1
	.eabi_attribute 25, 1
	.eabi_attribute 26, 1
	.eabi_attribute 30, 6
	.eabi_attribute 34, 1
	.eabi_attribute 18, 4
	.file	"system_stm32f4xx.c"
	.text
.Ltext0:
	.cfi_sections	.debug_frame
	.file 1 "Src/system_stm32f4xx.c"
	.global	SystemCoreClock
	.data
	.align	2
	.type	SystemCoreClock, %object
	.size	SystemCoreClock, 4
SystemCoreClock:
	.word	84000000
	.global	AHBPrescTable
	.align	2
	.type	AHBPrescTable, %object
	.size	AHBPrescTable, 16
AHBPrescTable:
	.ascii	"\000\000\000\000\000\000\000\000\001\002\003\004\006"
	.ascii	"\007\010\011"
	.text
	.align	1
	.global	SystemInit
	.syntax unified
	.thumb
	.thumb_func
	.type	SystemInit, %function
SystemInit:
.LFB123:
	.loc 1 484 1
	.cfi_startproc
	@ args = 0, pretend = 0, frame = 0
	@ frame_needed = 1, uses_anonymous_args = 0
	@ link register save eliminated.
	push	{r7}
	.cfi_def_cfa_offset 4
	.cfi_offset 7, -4
	add	r7, sp, #0
	.cfi_def_cfa_register 7
	.loc 1 494 6
	ldr	r3, .L2
	.loc 1 494 13
	mov	r2, #134217728
	str	r2, [r3, #8]
	.loc 1 496 1
	nop
	mov	sp, r7
	.cfi_def_cfa_register 13
	@ sp needed
	pop	{r7}
	.cfi_restore 7
	.cfi_def_cfa_offset 0
	bx	lr
.L3:
	.align	2
.L2:
	.word	-536810240
	.cfi_endproc
.LFE123:
	.size	SystemInit, .-SystemInit
	.align	1
	.global	SystemInit_Old
	.syntax unified
	.thumb
	.thumb_func
	.type	SystemInit_Old, %function
SystemInit_Old:
.LFB124:
	.loc 1 499 1
	.cfi_startproc
	@ args = 0, pretend = 0, frame = 0
	@ frame_needed = 1, uses_anonymous_args = 0
	push	{r7, lr}
	.cfi_def_cfa_offset 8
	.cfi_offset 7, -8
	.cfi_offset 14, -4
	add	r7, sp, #0
	.cfi_def_cfa_register 7
	.loc 1 507 6
	ldr	r3, .L5
	ldr	r3, [r3]
	ldr	r2, .L5
	.loc 1 507 11
	orr	r3, r3, #1
	str	r3, [r2]
	.loc 1 510 6
	ldr	r3, .L5
	.loc 1 510 13
	movs	r2, #0
	str	r2, [r3, #8]
	.loc 1 513 6
	ldr	r3, .L5
	ldr	r3, [r3]
	ldr	r2, .L5
	.loc 1 513 11
	bic	r3, r3, #17301504
	bic	r3, r3, #65536
	str	r3, [r2]
	.loc 1 516 6
	ldr	r3, .L5
	.loc 1 516 16
	ldr	r2, .L5+4
	str	r2, [r3, #4]
	.loc 1 519 6
	ldr	r3, .L5
	ldr	r3, [r3]
	ldr	r2, .L5
	.loc 1 519 11
	bic	r3, r3, #262144
	str	r3, [r2]
	.loc 1 522 6
	ldr	r3, .L5
	.loc 1 522 12
	movs	r2, #0
	str	r2, [r3, #12]
	.loc 1 530 3
	bl	SetSysClock
	.loc 1 536 6
	ldr	r3, .L5+8
	.loc 1 536 13
	mov	r2, #134217728
	str	r2, [r3, #8]
	.loc 1 538 1
	nop
	pop	{r7, pc}
.L6:
	.align	2
.L5:
	.word	1073887232
	.word	603992080
	.word	-536810240
	.cfi_endproc
.LFE124:
	.size	SystemInit_Old, .-SystemInit_Old
	.align	1
	.global	SystemCoreClockUpdate
	.syntax unified
	.thumb
	.thumb_func
	.type	SystemCoreClockUpdate, %function
SystemCoreClockUpdate:
.LFB125:
	.loc 1 577 1
	.cfi_startproc
	@ args = 0, pretend = 0, frame = 24
	@ frame_needed = 1, uses_anonymous_args = 0
	@ link register save eliminated.
	push	{r7}
	.cfi_def_cfa_offset 4
	.cfi_offset 7, -4
	sub	sp, sp, #28
	.cfi_def_cfa_offset 32
	add	r7, sp, #0
	.cfi_def_cfa_register 7
	.loc 1 578 12
	movs	r3, #0
	str	r3, [r7, #16]
	.loc 1 578 21
	movs	r3, #0
	str	r3, [r7, #20]
	.loc 1 578 33
	movs	r3, #2
	str	r3, [r7, #12]
	.loc 1 578 43
	movs	r3, #0
	str	r3, [r7, #8]
	.loc 1 578 58
	movs	r3, #2
	str	r3, [r7, #4]
	.loc 1 583 12
	ldr	r3, .L15
	ldr	r3, [r3, #8]
	.loc 1 583 7
	and	r3, r3, #12
	str	r3, [r7, #16]
	.loc 1 585 3
	ldr	r3, [r7, #16]
	cmp	r3, #8
	beq	.L8
	ldr	r3, [r7, #16]
	cmp	r3, #8
	bhi	.L9
	ldr	r3, [r7, #16]
	cmp	r3, #0
	beq	.L10
	ldr	r3, [r7, #16]
	cmp	r3, #4
	beq	.L11
	b	.L9
.L10:
	.loc 1 588 23
	ldr	r3, .L15+4
	ldr	r2, .L15+8
	str	r2, [r3]
	.loc 1 589 7
	b	.L12
.L11:
	.loc 1 591 23
	ldr	r3, .L15+4
	ldr	r2, .L15+12
	str	r2, [r3]
	.loc 1 592 7
	b	.L12
.L8:
	.loc 1 597 23
	ldr	r3, .L15
	ldr	r3, [r3, #4]
	.loc 1 597 55
	lsrs	r3, r3, #22
	.loc 1 597 17
	and	r3, r3, #1
	str	r3, [r7, #8]
	.loc 1 598 17
	ldr	r3, .L15
	ldr	r3, [r3, #4]
	.loc 1 598 12
	and	r3, r3, #63
	str	r3, [r7, #4]
	.loc 1 601 10
	ldr	r3, [r7, #8]
	cmp	r3, #0
	beq	.L13
	.loc 1 604 29
	ldr	r2, .L15+12
	ldr	r3, [r7, #4]
	udiv	r3, r2, r3
	.loc 1 604 44
	ldr	r2, .L15
	ldr	r2, [r2, #4]
	.loc 1 604 74
	lsrs	r2, r2, #6
	ubfx	r2, r2, #0, #9
	.loc 1 604 16
	mul	r3, r2, r3
	str	r3, [r7, #20]
	b	.L14
.L13:
	.loc 1 609 29
	ldr	r2, .L15+8
	ldr	r3, [r7, #4]
	udiv	r3, r2, r3
	.loc 1 609 44
	ldr	r2, .L15
	ldr	r2, [r2, #4]
	.loc 1 609 74
	lsrs	r2, r2, #6
	ubfx	r2, r2, #0, #9
	.loc 1 609 16
	mul	r3, r2, r3
	str	r3, [r7, #20]
.L14:
	.loc 1 626 20
	ldr	r3, .L15
	ldr	r3, [r3, #4]
	.loc 1 626 50
	lsrs	r3, r3, #16
	and	r3, r3, #3
	.loc 1 626 56
	adds	r3, r3, #1
	.loc 1 626 12
	lsls	r3, r3, #1
	str	r3, [r7, #12]
	.loc 1 627 31
	ldr	r2, [r7, #20]
	ldr	r3, [r7, #12]
	udiv	r3, r2, r3
	.loc 1 627 23
	ldr	r2, .L15+4
	str	r3, [r2]
	.loc 1 628 7
	b	.L12
.L9:
	.loc 1 652 23
	ldr	r3, .L15+4
	ldr	r2, .L15+8
	str	r2, [r3]
	.loc 1 653 7
	nop
.L12:
	.loc 1 657 28
	ldr	r3, .L15
	ldr	r3, [r3, #8]
	.loc 1 657 52
	lsrs	r3, r3, #4
	and	r3, r3, #15
	.loc 1 657 22
	ldr	r2, .L15+16
	ldrb	r3, [r2, r3]
	uxtb	r3, r3
	.loc 1 657 7
	str	r3, [r7, #16]
	.loc 1 659 19
	ldr	r3, .L15+4
	ldr	r2, [r3]
	ldr	r3, [r7, #16]
	lsr	r3, r2, r3
	ldr	r2, .L15+4
	str	r3, [r2]
	.loc 1 660 1
	nop
	adds	r7, r7, #28
	.cfi_def_cfa_offset 4
	mov	sp, r7
	.cfi_def_cfa_register 13
	@ sp needed
	pop	{r7}
	.cfi_restore 7
	.cfi_def_cfa_offset 0
	bx	lr
.L16:
	.align	2
.L15:
	.word	1073887232
	.word	SystemCoreClock
	.word	16000000
	.word	25000000
	.word	AHBPrescTable
	.cfi_endproc
.LFE125:
	.size	SystemCoreClockUpdate, .-SystemCoreClockUpdate
	.align	1
	.syntax unified
	.thumb
	.thumb_func
	.type	SetSysClock, %function
SetSysClock:
.LFB126:
	.loc 1 671 1
	.cfi_startproc
	@ args = 0, pretend = 0, frame = 8
	@ frame_needed = 1, uses_anonymous_args = 0
	@ link register save eliminated.
	push	{r7}
	.cfi_def_cfa_offset 4
	.cfi_offset 7, -4
	sub	sp, sp, #12
	.cfi_def_cfa_offset 16
	add	r7, sp, #0
	.cfi_def_cfa_register 7
	.loc 1 676 17
	movs	r3, #0
	str	r3, [r7, #4]
	.loc 1 676 37
	movs	r3, #0
	str	r3, [r7]
	.loc 1 679 6
	ldr	r3, .L26
	ldr	r3, [r3]
	ldr	r2, .L26
	.loc 1 679 11
	orr	r3, r3, #65536
	str	r3, [r2]
.L19:
	.loc 1 684 20 discriminator 2
	ldr	r3, .L26
	ldr	r3, [r3]
	.loc 1 684 25 discriminator 2
	and	r3, r3, #131072
	.loc 1 684 15 discriminator 2
	str	r3, [r7]
	.loc 1 685 19 discriminator 2
	ldr	r3, [r7, #4]
	adds	r3, r3, #1
	str	r3, [r7, #4]
	.loc 1 686 22 discriminator 2
	ldr	r3, [r7]
	.loc 1 686 28 discriminator 2
	cmp	r3, #0
	bne	.L18
	.loc 1 686 47 discriminator 1
	ldr	r3, [r7, #4]
	.loc 1 686 28 discriminator 1
	cmp	r3, #20480
	bne	.L19
.L18:
	.loc 1 688 11
	ldr	r3, .L26
	ldr	r3, [r3]
	.loc 1 688 16
	and	r3, r3, #131072
	.loc 1 688 6
	cmp	r3, #0
	beq	.L20
	.loc 1 690 15
	movs	r3, #1
	str	r3, [r7]
	b	.L21
.L20:
	.loc 1 694 15
	movs	r3, #0
	str	r3, [r7]
.L21:
	.loc 1 697 17
	ldr	r3, [r7]
	.loc 1 697 6
	cmp	r3, #1
	bne	.L25
	.loc 1 700 8
	ldr	r3, .L26
	ldr	r3, [r3, #64]
	ldr	r2, .L26
	.loc 1 700 18
	orr	r3, r3, #268435456
	str	r3, [r2, #64]
	.loc 1 701 8
	ldr	r3, .L26+4
	ldr	r3, [r3]
	ldr	r2, .L26+4
	.loc 1 701 13
	orr	r3, r3, #49152
	str	r3, [r2]
	.loc 1 704 8
	ldr	r3, .L26
	ldr	r2, .L26
	ldr	r3, [r3, #8]
	.loc 1 704 15
	str	r3, [r2, #8]
	.loc 1 716 8
	ldr	r3, .L26
	ldr	r2, .L26
	ldr	r3, [r3, #8]
	.loc 1 716 15
	str	r3, [r2, #8]
	.loc 1 719 8
	ldr	r3, .L26
	ldr	r3, [r3, #8]
	ldr	r2, .L26
	.loc 1 719 15
	orr	r3, r3, #4096
	str	r3, [r2, #8]
	.loc 1 724 8
	ldr	r3, .L26
	.loc 1 724 18
	ldr	r2, .L26+8
	str	r2, [r3, #4]
	.loc 1 735 8
	ldr	r3, .L26
	ldr	r3, [r3]
	ldr	r2, .L26
	.loc 1 735 13
	orr	r3, r3, #16777216
	str	r3, [r2]
	.loc 1 738 10
	nop
.L23:
	.loc 1 738 15 discriminator 1
	ldr	r3, .L26
	ldr	r3, [r3]
	.loc 1 738 20 discriminator 1
	and	r3, r3, #33554432
	.loc 1 738 37 discriminator 1
	cmp	r3, #0
	beq	.L23
	.loc 1 768 10
	ldr	r3, .L26+12
	.loc 1 768 16
	movw	r2, #1794
	str	r2, [r3]
	.loc 1 772 8
	ldr	r3, .L26
	ldr	r3, [r3, #8]
	ldr	r2, .L26
	.loc 1 772 15
	bic	r3, r3, #3
	str	r3, [r2, #8]
	.loc 1 773 8
	ldr	r3, .L26
	ldr	r3, [r3, #8]
	ldr	r2, .L26
	.loc 1 773 15
	orr	r3, r3, #2
	str	r3, [r2, #8]
	.loc 1 776 11
	nop
.L24:
	.loc 1 776 16 discriminator 1
	ldr	r3, .L26
	ldr	r3, [r3, #8]
	.loc 1 776 23 discriminator 1
	and	r3, r3, #12
	.loc 1 776 50 discriminator 1
	cmp	r3, #8
	bne	.L24
.L25:
	.loc 1 891 1
	nop
	adds	r7, r7, #12
	.cfi_def_cfa_offset 4
	mov	sp, r7
	.cfi_def_cfa_register 13
	@ sp needed
	pop	{r7}
	.cfi_restore 7
	.cfi_def_cfa_offset 0
	bx	lr
.L27:
	.align	2
.L26:
	.word	1073887232
	.word	1073770496
	.word	121721881
	.word	1073888256
	.cfi_endproc
.LFE126:
	.size	SetSysClock, .-SetSysClock
.Letext0:
	.file 2 "/opt/st/stm32cubeclt_1.16.0/GNU-tools-for-STM32/arm-none-eabi/include/machine/_default_types.h"
	.file 3 "/opt/st/stm32cubeclt_1.16.0/GNU-tools-for-STM32/arm-none-eabi/include/sys/_stdint.h"
	.file 4 "CMSIS/Inc/core_cm4.h"
	.file 5 "CMSIS/Inc/stm32f4xx.h"
	.file 6 "CMSIS/Inc/system_stm32f4xx.h"